ARM GAS  C:\Users\jefer\AppData\Local\Temp\ccK9eoPt.s 			page 1


   1              		.syntax unified
   2              		.cpu cortex-m3
   3              		.fpu softvfp
   4              		.eabi_attribute 20, 1
   5              		.eabi_attribute 21, 1
   6              		.eabi_attribute 23, 3
   7              		.eabi_attribute 24, 1
   8              		.eabi_attribute 25, 1
   9              		.eabi_attribute 26, 1
  10              		.eabi_attribute 30, 1
  11              		.eabi_attribute 34, 1
  12              		.eabi_attribute 18, 4
  13              		.thumb
  14              		.syntax unified
  15              		.file	"main.c"
  16              		.text
  17              	.Ltext0:
  18              		.cfi_sections	.debug_frame
  19              		.section	.text.InterrupRx,"ax",%progbits
  20              		.align	2
  21              		.global	InterrupRx
  22              		.thumb
  23              		.thumb_func
  24              		.type	InterrupRx, %function
  25              	InterrupRx:
  26              	.LFB68:
  27              		.file 1 "main.c"
   1:main.c        **** /* ========================================
   2:main.c        ****  * 
   3:main.c        ****  *
   4:main.c        ****  * ========================================
   5:main.c        **** */
   6:main.c        **** #include "project.h"
   7:main.c        **** #include <stdio.h>
   8:main.c        **** #include <stdbool.h>
   9:main.c        **** 
  10:main.c        **** #define DS1307_dir 0x68         
  11:main.c        **** #define ds1307_dir_memory 0x00
  12:main.c        **** #define direccion_de_registro_control 0x07
  13:main.c        **** #define registro_control 0b10010001
  14:main.c        **** 
  15:main.c        **** volatile char dato=0;
  16:main.c        **** volatile bool bandera = false;
  17:main.c        **** volatile bool banderaM = false;
  18:main.c        **** volatile bool banderaI = false;
  19:main.c        **** volatile bool banderaF = false;
  20:main.c        **** volatile bool banderaS = false;
  21:main.c        **** volatile bool banderaH = false;
  22:main.c        **** volatile bool cont=false;
  23:main.c        **** volatile bool item1[4]={0,0,0,0};
  24:main.c        **** volatile bool item2[4]={0,0,0,0};
  25:main.c        **** volatile bool item3[4]={0,0,0,0};
  26:main.c        **** volatile bool item4[4]={0,0,0,0};
  27:main.c        **** volatile uint16 temp2=0;
  28:main.c        **** volatile char item=0;
  29:main.c        **** 
  30:main.c        **** 
ARM GAS  C:\Users\jefer\AppData\Local\Temp\ccK9eoPt.s 			page 2


  31:main.c        **** typedef union
  32:main.c        **** {struct{
  33:main.c        ****   char sec;
  34:main.c        ****   char min;
  35:main.c        ****   char hour;
  36:main.c        ****   char weekDay;
  37:main.c        ****   char date;
  38:main.c        ****   char month;
  39:main.c        ****   char year;  
  40:main.c        **** };
  41:main.c        **** char datos[8];
  42:main.c        **** }rtc_t;
  43:main.c        **** 
  44:main.c        **** rtc_t ds;
  45:main.c        **** 
  46:main.c        **** volatile char wHoraInicio[3];
  47:main.c        **** volatile char xHoraInicio[3];
  48:main.c        **** volatile char yHoraInicio[3];
  49:main.c        **** volatile char zHoraInicio[3];
  50:main.c        **** 
  51:main.c        **** volatile char wHoraFin[3];
  52:main.c        **** volatile char xHoraFin[3];
  53:main.c        **** volatile char yHoraFin[3];
  54:main.c        **** volatile char zHoraFin[3];
  55:main.c        **** 
  56:main.c        **** uint16 aux[2]={0,0};
  57:main.c        **** 
  58:main.c        **** void DS_begintx (void){
  59:main.c        ****         do{
  60:main.c        ****                 //Espera mienstras el esclavo le responde
  61:main.c        ****         }while(I2C_MasterSendStart(DS1307_dir, I2C_WRITE_XFER_MODE)!=I2C_MSTR_NO_ERROR);
  62:main.c        **** }
  63:main.c        **** 
  64:main.c        **** void DS_init(void){
  65:main.c        ****     DS_begintx();
  66:main.c        ****     I2C_MasterWriteByte(direccion_de_registro_control);  
  67:main.c        ****     I2C_MasterWriteByte(registro_control);
  68:main.c        ****     I2C_MasterSendStop();
  69:main.c        **** }
  70:main.c        **** 
  71:main.c        **** void DS_set_data(){
  72:main.c        ****     uint8 i; 
  73:main.c        ****     
  74:main.c        ****     for(i=0;i<=7;i++){
  75:main.c        ****         DS_begintx();
  76:main.c        ****         I2C_MasterWriteByte(i);     // Escribe la posicion 
  77:main.c        ****         I2C_MasterWriteByte(ds.datos[i]);            // Escribe el dato correspondiente
  78:main.c        ****         I2C_MasterSendStop();
  79:main.c        ****     }
  80:main.c        **** }
  81:main.c        **** 
  82:main.c        **** void DS_get_data(){        
  83:main.c        ****         uint8 i;
  84:main.c        ****     for(i=0;i<=7;i++){
  85:main.c        ****         DS_begintx();
  86:main.c        ****         I2C_MasterWriteByte(i);//Pone direccion de memoria que quiere leer 
  87:main.c        ****         I2C_MasterSendRestart(DS1307_dir, I2C_READ_XFER_MODE); // Re transmite para obtener datos
ARM GAS  C:\Users\jefer\AppData\Local\Temp\ccK9eoPt.s 			page 3


  88:main.c        ****         ds.datos[i]=I2C_MasterReadByte(I2C_NAK_DATA);
  89:main.c        ****         I2C_MasterSendStop();
  90:main.c        ****     }
  91:main.c        ****     
  92:main.c        **** }
  93:main.c        **** 
  94:main.c        **** CY_ISR(InterrupRx){
  28              		.loc 1 94 0
  29              		.cfi_startproc
  30              		@ args = 0, pretend = 0, frame = 0
  31              		@ frame_needed = 0, uses_anonymous_args = 0
  32 0000 38B5     		push	{r3, r4, r5, lr}
  33              		.cfi_def_cfa_offset 16
  34              		.cfi_offset 3, -16
  35              		.cfi_offset 4, -12
  36              		.cfi_offset 5, -8
  37              		.cfi_offset 14, -4
  95:main.c        ****     char dato;
  96:main.c        ****     dato=UART_GetChar();//recibe el dato del bluetooth
  38              		.loc 1 96 0
  39 0002 FFF7FEFF 		bl	UART_GetChar
  40              	.LVL0:
  41 0006 0446     		mov	r4, r0
  42              	.LVL1:
  97:main.c        ****     if(bandera==true){
  43              		.loc 1 97 0
  44 0008 A24B     		ldr	r3, .L62
  45 000a 1B78     		ldrb	r3, [r3]	@ zero_extendqisi2
  46 000c 13F0FF0F 		tst	r3, #255
  47 0010 00F01182 		beq	.L2
  98:main.c        ****         switch (dato){
  48              		.loc 1 98 0
  49 0014 A0F16603 		sub	r3, r0, #102
  50 0018 142B     		cmp	r3, #20
  51 001a 5FD8     		bhi	.L3
  52 001c DFE803F0 		tbb	[pc, r3]
  53              	.L5:
  54 0020 48       		.byte	(.L4-.L5)/2
  55 0021 5E       		.byte	(.L3-.L5)/2
  56 0022 32       		.byte	(.L6-.L5)/2
  57 0023 3D       		.byte	(.L7-.L5)/2
  58 0024 5E       		.byte	(.L3-.L5)/2
  59 0025 5E       		.byte	(.L3-.L5)/2
  60 0026 5E       		.byte	(.L3-.L5)/2
  61 0027 53       		.byte	(.L8-.L5)/2
  62 0028 5E       		.byte	(.L3-.L5)/2
  63 0029 5E       		.byte	(.L3-.L5)/2
  64 002a 5E       		.byte	(.L3-.L5)/2
  65 002b 5E       		.byte	(.L3-.L5)/2
  66 002c 5E       		.byte	(.L3-.L5)/2
  67 002d 27       		.byte	(.L9-.L5)/2
  68 002e 5E       		.byte	(.L3-.L5)/2
  69 002f 5E       		.byte	(.L3-.L5)/2
  70 0030 5E       		.byte	(.L3-.L5)/2
  71 0031 0B       		.byte	(.L10-.L5)/2
  72 0032 12       		.byte	(.L11-.L5)/2
  73 0033 19       		.byte	(.L12-.L5)/2
ARM GAS  C:\Users\jefer\AppData\Local\Temp\ccK9eoPt.s 			page 4


  74 0034 20       		.byte	(.L13-.L5)/2
  75 0035 00       		.p2align 1
  76              	.L10:
  99:main.c        ****             case 'w':{
 100:main.c        ****                 PINA_Write(~PINA_Read()); 
  77              		.loc 1 100 0
  78 0036 FFF7FEFF 		bl	PINA_Read
  79              	.LVL2:
  80 003a C043     		mvns	r0, r0
  81 003c C0B2     		uxtb	r0, r0
  82 003e FFF7FEFF 		bl	PINA_Write
  83              	.LVL3:
 101:main.c        ****                 dato=0;
 102:main.c        ****                 break;
  84              		.loc 1 102 0
  85 0042 38BD     		pop	{r3, r4, r5, pc}
  86              	.LVL4:
  87              	.L11:
 103:main.c        ****             }
 104:main.c        ****             case 'x':{ 
 105:main.c        ****                 PINB_Write(~PINB_Read());
  88              		.loc 1 105 0
  89 0044 FFF7FEFF 		bl	PINB_Read
  90              	.LVL5:
  91 0048 C043     		mvns	r0, r0
  92 004a C0B2     		uxtb	r0, r0
  93 004c FFF7FEFF 		bl	PINB_Write
  94              	.LVL6:
 106:main.c        ****                 dato=0;
 107:main.c        ****                 break;
  95              		.loc 1 107 0
  96 0050 38BD     		pop	{r3, r4, r5, pc}
  97              	.LVL7:
  98              	.L12:
 108:main.c        ****             }
 109:main.c        ****             case 'y':{
 110:main.c        ****                 PINC_Write(~PINC_Read());            
  99              		.loc 1 110 0
 100 0052 FFF7FEFF 		bl	PINC_Read
 101              	.LVL8:
 102 0056 C043     		mvns	r0, r0
 103 0058 C0B2     		uxtb	r0, r0
 104 005a FFF7FEFF 		bl	PINC_Write
 105              	.LVL9:
 111:main.c        ****                 dato=0;
 112:main.c        ****                 break;
 106              		.loc 1 112 0
 107 005e 38BD     		pop	{r3, r4, r5, pc}
 108              	.LVL10:
 109              	.L13:
 113:main.c        ****             }
 114:main.c        ****             case 'z':{
 115:main.c        ****                 PIND_Write(~PIND_Read());
 110              		.loc 1 115 0
 111 0060 FFF7FEFF 		bl	PIND_Read
 112              	.LVL11:
 113 0064 C043     		mvns	r0, r0
ARM GAS  C:\Users\jefer\AppData\Local\Temp\ccK9eoPt.s 			page 5


 114 0066 C0B2     		uxtb	r0, r0
 115 0068 FFF7FEFF 		bl	PIND_Write
 116              	.LVL12:
 116:main.c        ****                 dato=0;
 117:main.c        ****                 break;
 117              		.loc 1 117 0
 118 006c 38BD     		pop	{r3, r4, r5, pc}
 119              	.LVL13:
 120              	.L9:
 118:main.c        ****             }
 119:main.c        ****             case 's':{
 120:main.c        ****                 LCD_Position(0,0);
 121              		.loc 1 120 0
 122 006e 0021     		movs	r1, #0
 123 0070 0846     		mov	r0, r1
 124              	.LVL14:
 125 0072 FFF7FEFF 		bl	LCD_Position
 126              	.LVL15:
 121:main.c        ****                 LCD_PrintString("Hall    %");
 127              		.loc 1 121 0
 128 0076 8848     		ldr	r0, .L62+4
 129 0078 FFF7FEFF 		bl	LCD_PrintString
 130              	.LVL16:
 122:main.c        ****                 banderaS=true; 
 131              		.loc 1 122 0
 132 007c 0122     		movs	r2, #1
 133 007e 854B     		ldr	r3, .L62
 134 0080 5A70     		strb	r2, [r3, #1]
 123:main.c        ****                 break;
 135              		.loc 1 123 0
 136 0082 38BD     		pop	{r3, r4, r5, pc}
 137              	.LVL17:
 138              	.L6:
 124:main.c        ****             }
 125:main.c        ****             case 'h':{   
 126:main.c        ****                 LCD_Position(0,0);
 139              		.loc 1 126 0
 140 0084 0021     		movs	r1, #0
 141 0086 0846     		mov	r0, r1
 142              	.LVL18:
 143 0088 FFF7FEFF 		bl	LCD_Position
 144              	.LVL19:
 127:main.c        ****                 LCD_PrintString("Room    %");
 145              		.loc 1 127 0
 146 008c 8348     		ldr	r0, .L62+8
 147 008e FFF7FEFF 		bl	LCD_PrintString
 148              	.LVL20:
 128:main.c        ****                 banderaH=true; 
 149              		.loc 1 128 0
 150 0092 0122     		movs	r2, #1
 151 0094 7F4B     		ldr	r3, .L62
 152 0096 9A70     		strb	r2, [r3, #2]
 129:main.c        ****                 break;
 153              		.loc 1 129 0
 154 0098 38BD     		pop	{r3, r4, r5, pc}
 155              	.LVL21:
 156              	.L7:
ARM GAS  C:\Users\jefer\AppData\Local\Temp\ccK9eoPt.s 			page 6


 130:main.c        ****             }
 131:main.c        ****             case 'i':{
 132:main.c        ****                 LCD_Position(0,0);
 157              		.loc 1 132 0
 158 009a 0021     		movs	r1, #0
 159 009c 0846     		mov	r0, r1
 160              	.LVL22:
 161 009e FFF7FEFF 		bl	LCD_Position
 162              	.LVL23:
 133:main.c        ****                 LCD_PrintString("ON        ");
 163              		.loc 1 133 0
 164 00a2 7F48     		ldr	r0, .L62+12
 165 00a4 FFF7FEFF 		bl	LCD_PrintString
 166              	.LVL24:
 134:main.c        ****                 banderaI=true;
 167              		.loc 1 134 0
 168 00a8 0122     		movs	r2, #1
 169 00aa 7A4B     		ldr	r3, .L62
 170 00ac DA70     		strb	r2, [r3, #3]
 135:main.c        ****                 break;
 171              		.loc 1 135 0
 172 00ae 38BD     		pop	{r3, r4, r5, pc}
 173              	.LVL25:
 174              	.L4:
 136:main.c        ****             }
 137:main.c        ****             case 'f':{
 138:main.c        ****                 LCD_Position(0,0);
 175              		.loc 1 138 0
 176 00b0 0021     		movs	r1, #0
 177 00b2 0846     		mov	r0, r1
 178              	.LVL26:
 179 00b4 FFF7FEFF 		bl	LCD_Position
 180              	.LVL27:
 139:main.c        ****                 LCD_PrintString("OFF       ");
 181              		.loc 1 139 0
 182 00b8 7A48     		ldr	r0, .L62+16
 183 00ba FFF7FEFF 		bl	LCD_PrintString
 184              	.LVL28:
 140:main.c        ****                 banderaF=true;
 185              		.loc 1 140 0
 186 00be 0122     		movs	r2, #1
 187 00c0 744B     		ldr	r3, .L62
 188 00c2 1A71     		strb	r2, [r3, #4]
 141:main.c        ****                 break;
 189              		.loc 1 141 0
 190 00c4 38BD     		pop	{r3, r4, r5, pc}
 191              	.LVL29:
 192              	.L8:
 142:main.c        ****             }
 143:main.c        ****             case 'm':{
 144:main.c        ****                 LCD_Position(0,0);
 193              		.loc 1 144 0
 194 00c6 0021     		movs	r1, #0
 195 00c8 0846     		mov	r0, r1
 196              	.LVL30:
 197 00ca FFF7FEFF 		bl	LCD_Position
 198              	.LVL31:
ARM GAS  C:\Users\jefer\AppData\Local\Temp\ccK9eoPt.s 			page 7


 145:main.c        ****                 LCD_PrintString("Select:     ");
 199              		.loc 1 145 0
 200 00ce 7648     		ldr	r0, .L62+20
 201 00d0 FFF7FEFF 		bl	LCD_PrintString
 202              	.LVL32:
 146:main.c        ****                 banderaM=true;
 203              		.loc 1 146 0
 204 00d4 0122     		movs	r2, #1
 205 00d6 6F4B     		ldr	r3, .L62
 206 00d8 5A71     		strb	r2, [r3, #5]
 147:main.c        ****                 break;
 207              		.loc 1 147 0
 208 00da 38BD     		pop	{r3, r4, r5, pc}
 209              	.LVL33:
 210              	.L3:
 148:main.c        ****             }
 149:main.c        ****             default:
 150:main.c        ****             {
 151:main.c        ****                 if (banderaS==true){
 211              		.loc 1 151 0
 212 00dc 6D4B     		ldr	r3, .L62
 213 00de 5B78     		ldrb	r3, [r3, #1]	@ zero_extendqisi2
 214 00e0 13F0FF0F 		tst	r3, #255
 215 00e4 15D0     		beq	.L15
 216              	.LBB2:
 152:main.c        ****                     char dimmer=((255*dato)/100);
 217              		.loc 1 152 0
 218 00e6 C0EB0023 		rsb	r3, r0, r0, lsl #8
 219 00ea 704D     		ldr	r5, .L62+24
 220 00ec 85FB0325 		smull	r2, r5, r5, r3
 221 00f0 DB17     		asrs	r3, r3, #31
 222 00f2 C3EB6515 		rsb	r5, r3, r5, asr #5
 223 00f6 EDB2     		uxtb	r5, r5
 224              	.LVL34:
 153:main.c        ****                     LCD_Position(0,6);
 225              		.loc 1 153 0
 226 00f8 0621     		movs	r1, #6
 227 00fa 0020     		movs	r0, #0
 228              	.LVL35:
 229 00fc FFF7FEFF 		bl	LCD_Position
 230              	.LVL36:
 154:main.c        ****                     LCD_PrintNumber(dato);
 231              		.loc 1 154 0
 232 0100 2046     		mov	r0, r4
 233 0102 FFF7FEFF 		bl	LCD_PrintU32Number
 234              	.LVL37:
 155:main.c        ****                     PWM_WriteCompare2(dimmer);
 235              		.loc 1 155 0
 236 0106 2846     		mov	r0, r5
 237 0108 FFF7FEFF 		bl	PWM_WriteCompare2
 238              	.LVL38:
 156:main.c        ****                     banderaS=false;
 239              		.loc 1 156 0
 240 010c 0022     		movs	r2, #0
 241 010e 614B     		ldr	r3, .L62
 242 0110 5A70     		strb	r2, [r3, #1]
 243              	.LVL39:
ARM GAS  C:\Users\jefer\AppData\Local\Temp\ccK9eoPt.s 			page 8


 244              	.L15:
 245              	.LBE2:
 157:main.c        ****                 }
 158:main.c        ****                 if (banderaH==true){
 246              		.loc 1 158 0
 247 0112 604B     		ldr	r3, .L62
 248 0114 9B78     		ldrb	r3, [r3, #2]	@ zero_extendqisi2
 249 0116 13F0FF0F 		tst	r3, #255
 250 011a 15D0     		beq	.L16
 251              	.LBB3:
 159:main.c        ****                     char dimmer=((255*dato)/100);
 252              		.loc 1 159 0
 253 011c C4EB0423 		rsb	r3, r4, r4, lsl #8
 254 0120 624D     		ldr	r5, .L62+24
 255 0122 85FB0325 		smull	r2, r5, r5, r3
 256 0126 DB17     		asrs	r3, r3, #31
 257 0128 C3EB6515 		rsb	r5, r3, r5, asr #5
 258 012c EDB2     		uxtb	r5, r5
 259              	.LVL40:
 160:main.c        ****                     LCD_Position(0,6);
 260              		.loc 1 160 0
 261 012e 0621     		movs	r1, #6
 262 0130 0020     		movs	r0, #0
 263 0132 FFF7FEFF 		bl	LCD_Position
 264              	.LVL41:
 161:main.c        ****                     LCD_PrintNumber(dato);
 265              		.loc 1 161 0
 266 0136 2046     		mov	r0, r4
 267 0138 FFF7FEFF 		bl	LCD_PrintU32Number
 268              	.LVL42:
 162:main.c        ****                     PWM_WriteCompare1(dimmer);
 269              		.loc 1 162 0
 270 013c 2846     		mov	r0, r5
 271 013e FFF7FEFF 		bl	PWM_WriteCompare1
 272              	.LVL43:
 163:main.c        ****                     banderaH=false;
 273              		.loc 1 163 0
 274 0142 0022     		movs	r2, #0
 275 0144 534B     		ldr	r3, .L62
 276 0146 9A70     		strb	r2, [r3, #2]
 277              	.LVL44:
 278              	.L16:
 279              	.LBE3:
 164:main.c        ****                 }
 165:main.c        ****                 if (banderaI==true){
 280              		.loc 1 165 0
 281 0148 524B     		ldr	r3, .L62
 282 014a DB78     		ldrb	r3, [r3, #3]	@ zero_extendqisi2
 283 014c 13F0FF0F 		tst	r3, #255
 284 0150 00F0B980 		beq	.L17
 166:main.c        ****                     if(cont==true){
 285              		.loc 1 166 0
 286 0154 4F4B     		ldr	r3, .L62
 287 0156 9B79     		ldrb	r3, [r3, #6]	@ zero_extendqisi2
 288 0158 13F0FF0F 		tst	r3, #255
 289 015c 50D0     		beq	.L18
 290              	.LBB4:
ARM GAS  C:\Users\jefer\AppData\Local\Temp\ccK9eoPt.s 			page 9


 167:main.c        ****                         if(dato>9){//Solo para impresion
 291              		.loc 1 167 0
 292 015e 092C     		cmp	r4, #9
 293 0160 03D9     		bls	.L19
 168:main.c        ****                             LCD_PrintNumber(dato);
 294              		.loc 1 168 0
 295 0162 2046     		mov	r0, r4
 296 0164 FFF7FEFF 		bl	LCD_PrintU32Number
 297              	.LVL45:
 298 0168 05E0     		b	.L20
 299              	.L19:
 169:main.c        ****                         }else{
 170:main.c        ****                             LCD_PrintNumber(0);
 300              		.loc 1 170 0
 301 016a 0020     		movs	r0, #0
 302 016c FFF7FEFF 		bl	LCD_PrintU32Number
 303              	.LVL46:
 171:main.c        ****                             LCD_PrintNumber(dato);
 304              		.loc 1 171 0
 305 0170 2046     		mov	r0, r4
 306 0172 FFF7FEFF 		bl	LCD_PrintU32Number
 307              	.LVL47:
 308              	.L20:
 172:main.c        ****                         }
 173:main.c        ****                         banderaI=false;
 309              		.loc 1 173 0
 310 0176 4749     		ldr	r1, .L62
 311 0178 0023     		movs	r3, #0
 312 017a CB70     		strb	r3, [r1, #3]
 174:main.c        ****                         cont=false;
 313              		.loc 1 174 0
 314 017c 8B71     		strb	r3, [r1, #6]
 175:main.c        ****                         //Transpaso de datos
 176:main.c        ****                         char a;
 177:main.c        ****                         a=((dato/10)<<4)+dato%10;
 315              		.loc 1 177 0
 316 017e A3F13333 		sub	r3, r3, #858993459
 317 0182 A3FB0423 		umull	r2, r3, r3, r4
 318 0186 DA08     		lsrs	r2, r3, #3
 319 0188 02EB8200 		add	r0, r2, r2, lsl #2
 320 018c 4300     		lsls	r3, r0, #1
 321 018e E31A     		subs	r3, r4, r3
 322 0190 03EB0213 		add	r3, r3, r2, lsl #4
 323 0194 DBB2     		uxtb	r3, r3
 324              	.LVL48:
 178:main.c        ****                         switch(item){
 325              		.loc 1 178 0
 326 0196 CA79     		ldrb	r2, [r1, #7]	@ zero_extendqisi2
 327 0198 013A     		subs	r2, r2, #1
 328 019a 032A     		cmp	r2, #3
 329 019c 00F29380 		bhi	.L17
 330 01a0 DFE802F0 		tbb	[pc, r2]
 331              	.L22:
 332 01a4 02       		.byte	(.L21-.L22)/2
 333 01a5 0D       		.byte	(.L23-.L22)/2
 334 01a6 18       		.byte	(.L24-.L22)/2
 335 01a7 23       		.byte	(.L25-.L22)/2
ARM GAS  C:\Users\jefer\AppData\Local\Temp\ccK9eoPt.s 			page 10


 336              		.p2align 1
 337              	.L21:
 179:main.c        ****                             case 1:{
 180:main.c        ****                                 wHoraInicio[1]=a;
 338              		.loc 1 180 0
 339 01a8 414A     		ldr	r2, .L62+28
 340 01aa 5370     		strb	r3, [r2, #1]
 181:main.c        ****                                 if(dato==0){//Condicion de reset
 341              		.loc 1 181 0
 342 01ac 1CB9     		cbnz	r4, .L26
 182:main.c        ****                                     item1[1]=false;
 343              		.loc 1 182 0
 344 01ae 0022     		movs	r2, #0
 345 01b0 384B     		ldr	r3, .L62
 346              	.LVL49:
 347 01b2 5A72     		strb	r2, [r3, #9]
 348              	.LVL50:
 349 01b4 87E0     		b	.L17
 350              	.LVL51:
 351              	.L26:
 183:main.c        ****                                 }
 184:main.c        ****                                 else{
 185:main.c        ****                                     item1[1]=true;
 352              		.loc 1 185 0
 353 01b6 0122     		movs	r2, #1
 354 01b8 364B     		ldr	r3, .L62
 355              	.LVL52:
 356 01ba 5A72     		strb	r2, [r3, #9]
 357              	.LVL53:
 358 01bc 83E0     		b	.L17
 359              	.LVL54:
 360              	.L23:
 186:main.c        ****                                 }
 187:main.c        ****                                 break;
 188:main.c        ****                             }
 189:main.c        ****                             case 2:{
 190:main.c        ****                                 xHoraInicio[1]=a;
 361              		.loc 1 190 0
 362 01be 3D4A     		ldr	r2, .L62+32
 363 01c0 5370     		strb	r3, [r2, #1]
 191:main.c        ****                                 if(dato==0){//Condicion de reset
 364              		.loc 1 191 0
 365 01c2 1CB9     		cbnz	r4, .L27
 192:main.c        ****                                     item2[1]=false;
 366              		.loc 1 192 0
 367 01c4 0022     		movs	r2, #0
 368 01c6 334B     		ldr	r3, .L62
 369              	.LVL55:
 370 01c8 5A73     		strb	r2, [r3, #13]
 371              	.LVL56:
 372 01ca 7CE0     		b	.L17
 373              	.LVL57:
 374              	.L27:
 193:main.c        ****                                 }
 194:main.c        ****                                 else{
 195:main.c        ****                                     item2[1]=true;
 375              		.loc 1 195 0
ARM GAS  C:\Users\jefer\AppData\Local\Temp\ccK9eoPt.s 			page 11


 376 01cc 0122     		movs	r2, #1
 377 01ce 314B     		ldr	r3, .L62
 378              	.LVL58:
 379 01d0 5A73     		strb	r2, [r3, #13]
 380              	.LVL59:
 381 01d2 78E0     		b	.L17
 382              	.LVL60:
 383              	.L24:
 196:main.c        ****                                 }
 197:main.c        ****                                 break;
 198:main.c        ****                             }
 199:main.c        ****                             case 3:{
 200:main.c        ****                                 yHoraInicio[1]=a;
 384              		.loc 1 200 0
 385 01d4 384A     		ldr	r2, .L62+36
 386 01d6 5370     		strb	r3, [r2, #1]
 201:main.c        ****                                 if(dato==0){//Condicion de reset
 387              		.loc 1 201 0
 388 01d8 1CB9     		cbnz	r4, .L28
 202:main.c        ****                                     item3[1]=false;
 389              		.loc 1 202 0
 390 01da 0022     		movs	r2, #0
 391 01dc 2D4B     		ldr	r3, .L62
 392              	.LVL61:
 393 01de 5A74     		strb	r2, [r3, #17]
 394              	.LVL62:
 395 01e0 71E0     		b	.L17
 396              	.LVL63:
 397              	.L28:
 203:main.c        ****                                 }
 204:main.c        ****                                 else{
 205:main.c        ****                                     item3[1]=true;
 398              		.loc 1 205 0
 399 01e2 0122     		movs	r2, #1
 400 01e4 2B4B     		ldr	r3, .L62
 401              	.LVL64:
 402 01e6 5A74     		strb	r2, [r3, #17]
 403              	.LVL65:
 404 01e8 6DE0     		b	.L17
 405              	.LVL66:
 406              	.L25:
 206:main.c        ****                                 }                               
 207:main.c        ****                                 break;
 208:main.c        ****                             }
 209:main.c        ****                             case 4:{
 210:main.c        ****                                 zHoraInicio[1]=a;
 407              		.loc 1 210 0
 408 01ea 344A     		ldr	r2, .L62+40
 409 01ec 5370     		strb	r3, [r2, #1]
 211:main.c        ****                                 if(dato==0){//Condicion de reset
 410              		.loc 1 211 0
 411 01ee 1CB9     		cbnz	r4, .L29
 212:main.c        ****                                     item4[1]=false;
 412              		.loc 1 212 0
 413 01f0 0022     		movs	r2, #0
 414 01f2 284B     		ldr	r3, .L62
 415              	.LVL67:
ARM GAS  C:\Users\jefer\AppData\Local\Temp\ccK9eoPt.s 			page 12


 416 01f4 5A75     		strb	r2, [r3, #21]
 417              	.LVL68:
 418 01f6 66E0     		b	.L17
 419              	.LVL69:
 420              	.L29:
 213:main.c        ****                                 }
 214:main.c        ****                                 else{
 215:main.c        ****                                     item4[1]=true;
 421              		.loc 1 215 0
 422 01f8 0122     		movs	r2, #1
 423 01fa 264B     		ldr	r3, .L62
 424              	.LVL70:
 425 01fc 5A75     		strb	r2, [r3, #21]
 426              	.LVL71:
 427 01fe 62E0     		b	.L17
 428              	.LVL72:
 429              	.L18:
 430              	.LBE4:
 431              	.LBB5:
 216:main.c        ****                                 }                                
 217:main.c        ****                                 break;
 218:main.c        ****                             }
 219:main.c        ****                             default:{
 220:main.c        ****                                 break;}
 221:main.c        ****                         }
 222:main.c        ****                         
 223:main.c        ****                     }else{
 224:main.c        ****                         LCD_Position(0,5);
 432              		.loc 1 224 0
 433 0200 0521     		movs	r1, #5
 434 0202 0020     		movs	r0, #0
 435 0204 FFF7FEFF 		bl	LCD_Position
 436              	.LVL73:
 225:main.c        ****                         LCD_PrintNumber(dato);
 437              		.loc 1 225 0
 438 0208 2046     		mov	r0, r4
 439 020a FFF7FEFF 		bl	LCD_PrintU32Number
 440              	.LVL74:
 226:main.c        ****                         LCD_PutChar(':');
 441              		.loc 1 226 0
 442 020e 3A20     		movs	r0, #58
 443 0210 FFF7FEFF 		bl	LCD_PutChar
 444              	.LVL75:
 227:main.c        ****                         cont=true;
 445              		.loc 1 227 0
 446 0214 1F49     		ldr	r1, .L62
 447 0216 0123     		movs	r3, #1
 448 0218 8B71     		strb	r3, [r1, #6]
 228:main.c        ****                         //Poner datos
 229:main.c        ****                         char a;
 230:main.c        ****                         a=((dato/10)<<4)+dato%10;
 449              		.loc 1 230 0
 450 021a 03F1CC33 		add	r3, r3, #-858993460
 451 021e A3FB0423 		umull	r2, r3, r3, r4
 452 0222 DA08     		lsrs	r2, r3, #3
 453 0224 02EB8200 		add	r0, r2, r2, lsl #2
 454 0228 4300     		lsls	r3, r0, #1
ARM GAS  C:\Users\jefer\AppData\Local\Temp\ccK9eoPt.s 			page 13


 455 022a E31A     		subs	r3, r4, r3
 456 022c 03EB0213 		add	r3, r3, r2, lsl #4
 457 0230 DBB2     		uxtb	r3, r3
 458              	.LVL76:
 231:main.c        ****                         switch(item){
 459              		.loc 1 231 0
 460 0232 CA79     		ldrb	r2, [r1, #7]	@ zero_extendqisi2
 461 0234 013A     		subs	r2, r2, #1
 462 0236 032A     		cmp	r2, #3
 463 0238 45D8     		bhi	.L17
 464 023a DFE802F0 		tbb	[pc, r2]
 465              	.L31:
 466 023e 02       		.byte	(.L30-.L31)/2
 467 023f 0D       		.byte	(.L32-.L31)/2
 468 0240 18       		.byte	(.L33-.L31)/2
 469 0241 23       		.byte	(.L34-.L31)/2
 470              		.p2align 1
 471              	.L30:
 232:main.c        ****                             case 1:{
 233:main.c        ****                                 wHoraInicio[2]=a;
 472              		.loc 1 233 0
 473 0242 1B4A     		ldr	r2, .L62+28
 474 0244 9370     		strb	r3, [r2, #2]
 234:main.c        ****                                 if(dato==0){//Condicion de reset
 475              		.loc 1 234 0
 476 0246 1CB9     		cbnz	r4, .L35
 235:main.c        ****                                     item1[0]=false;
 477              		.loc 1 235 0
 478 0248 0022     		movs	r2, #0
 479 024a 124B     		ldr	r3, .L62
 480              	.LVL77:
 481 024c 1A72     		strb	r2, [r3, #8]
 482              	.LVL78:
 483 024e 3AE0     		b	.L17
 484              	.LVL79:
 485              	.L35:
 236:main.c        ****                                 }
 237:main.c        ****                                 else{
 238:main.c        ****                                     item1[0]=true;
 486              		.loc 1 238 0
 487 0250 0122     		movs	r2, #1
 488 0252 104B     		ldr	r3, .L62
 489              	.LVL80:
 490 0254 1A72     		strb	r2, [r3, #8]
 491              	.LVL81:
 492 0256 36E0     		b	.L17
 493              	.LVL82:
 494              	.L32:
 239:main.c        ****                                 }                                
 240:main.c        ****                                 break;
 241:main.c        ****                             }
 242:main.c        ****                             case 2:{
 243:main.c        ****                                 xHoraInicio[2]=a;
 495              		.loc 1 243 0
 496 0258 164A     		ldr	r2, .L62+32
 497 025a 9370     		strb	r3, [r2, #2]
 244:main.c        ****                                 if(dato==0){//Condicion de reset
ARM GAS  C:\Users\jefer\AppData\Local\Temp\ccK9eoPt.s 			page 14


 498              		.loc 1 244 0
 499 025c 1CB9     		cbnz	r4, .L36
 245:main.c        ****                                     item2[0]=false;
 500              		.loc 1 245 0
 501 025e 0022     		movs	r2, #0
 502 0260 0C4B     		ldr	r3, .L62
 503              	.LVL83:
 504 0262 1A73     		strb	r2, [r3, #12]
 505              	.LVL84:
 506 0264 2FE0     		b	.L17
 507              	.LVL85:
 508              	.L36:
 246:main.c        ****                                 }
 247:main.c        ****                                 else{
 248:main.c        ****                                     item2[0]=true;
 509              		.loc 1 248 0
 510 0266 0122     		movs	r2, #1
 511 0268 0A4B     		ldr	r3, .L62
 512              	.LVL86:
 513 026a 1A73     		strb	r2, [r3, #12]
 514              	.LVL87:
 515 026c 2BE0     		b	.L17
 516              	.LVL88:
 517              	.L33:
 249:main.c        ****                                 }  
 250:main.c        ****                                 break;
 251:main.c        ****                             }
 252:main.c        ****                             case 3:{
 253:main.c        ****                                 yHoraInicio[2]=a;
 518              		.loc 1 253 0
 519 026e 124A     		ldr	r2, .L62+36
 520 0270 9370     		strb	r3, [r2, #2]
 254:main.c        ****                                 if(dato==0){//Condicion de reset
 521              		.loc 1 254 0
 522 0272 1CB9     		cbnz	r4, .L37
 255:main.c        ****                                     item3[0]=false;
 523              		.loc 1 255 0
 524 0274 0022     		movs	r2, #0
 525 0276 074B     		ldr	r3, .L62
 526              	.LVL89:
 527 0278 1A74     		strb	r2, [r3, #16]
 528              	.LVL90:
 529 027a 24E0     		b	.L17
 530              	.LVL91:
 531              	.L37:
 256:main.c        ****                                 }
 257:main.c        ****                                 else{
 258:main.c        ****                                     item3[0]=true;
 532              		.loc 1 258 0
 533 027c 0122     		movs	r2, #1
 534 027e 054B     		ldr	r3, .L62
 535              	.LVL92:
 536 0280 1A74     		strb	r2, [r3, #16]
 537              	.LVL93:
 538 0282 20E0     		b	.L17
 539              	.LVL94:
 540              	.L34:
ARM GAS  C:\Users\jefer\AppData\Local\Temp\ccK9eoPt.s 			page 15


 259:main.c        ****                                 }  
 260:main.c        ****                                 break;
 261:main.c        ****                             }
 262:main.c        ****                             case 4:{
 263:main.c        ****                                 zHoraInicio[2]=a;
 541              		.loc 1 263 0
 542 0284 0D4A     		ldr	r2, .L62+40
 543 0286 9370     		strb	r3, [r2, #2]
 264:main.c        ****                                 if(dato==0){//Condicion de reset
 544              		.loc 1 264 0
 545 0288 D4B9     		cbnz	r4, .L38
 265:main.c        ****                                     item4[0]=false;
 546              		.loc 1 265 0
 547 028a 0022     		movs	r2, #0
 548 028c 014B     		ldr	r3, .L62
 549              	.LVL95:
 550 028e 1A75     		strb	r2, [r3, #20]
 551              	.LVL96:
 552 0290 19E0     		b	.L17
 553              	.L63:
 554 0292 00BF     		.align	2
 555              	.L62:
 556 0294 00000000 		.word	.LANCHOR0
 557 0298 00000000 		.word	.LC0
 558 029c 0C000000 		.word	.LC1
 559 02a0 18000000 		.word	.LC2
 560 02a4 24000000 		.word	.LC3
 561 02a8 30000000 		.word	.LC4
 562 02ac 1F85EB51 		.word	1374389535
 563 02b0 00000000 		.word	wHoraInicio
 564 02b4 00000000 		.word	xHoraInicio
 565 02b8 00000000 		.word	yHoraInicio
 566 02bc 00000000 		.word	zHoraInicio
 567              	.LVL97:
 568              	.L38:
 266:main.c        ****                                 }
 267:main.c        ****                                 else{
 268:main.c        ****                                     item4[0]=true;
 569              		.loc 1 268 0
 570 02c0 0122     		movs	r2, #1
 571 02c2 634B     		ldr	r3, .L64
 572              	.LVL98:
 573 02c4 1A75     		strb	r2, [r3, #20]
 574              	.LVL99:
 575              	.L17:
 576              	.LBE5:
 269:main.c        ****                                 }                                  
 270:main.c        ****                                 break;
 271:main.c        ****                             }
 272:main.c        ****                             default:{
 273:main.c        ****                                 break;}
 274:main.c        ****                         }
 275:main.c        ****                         
 276:main.c        ****                     }
 277:main.c        ****                     
 278:main.c        ****                 }
 279:main.c        ****                 if (banderaF==true){
ARM GAS  C:\Users\jefer\AppData\Local\Temp\ccK9eoPt.s 			page 16


 577              		.loc 1 279 0
 578 02c6 624B     		ldr	r3, .L64
 579 02c8 1B79     		ldrb	r3, [r3, #4]	@ zero_extendqisi2
 580 02ca 13F0FF0F 		tst	r3, #255
 581 02ce 00F0A180 		beq	.L39
 280:main.c        ****                     if(cont==true){
 582              		.loc 1 280 0
 583 02d2 5F4B     		ldr	r3, .L64
 584 02d4 9B79     		ldrb	r3, [r3, #6]	@ zero_extendqisi2
 585 02d6 13F0FF0F 		tst	r3, #255
 586 02da 4FD0     		beq	.L40
 587              	.LBB6:
 281:main.c        ****                         if(dato>9){
 588              		.loc 1 281 0
 589 02dc 092C     		cmp	r4, #9
 590 02de 03D9     		bls	.L41
 282:main.c        ****                             LCD_PrintNumber(dato);
 591              		.loc 1 282 0
 592 02e0 2046     		mov	r0, r4
 593 02e2 FFF7FEFF 		bl	LCD_PrintU32Number
 594              	.LVL100:
 595 02e6 05E0     		b	.L42
 596              	.L41:
 283:main.c        ****                         }else{
 284:main.c        ****                             LCD_PrintNumber(0);
 597              		.loc 1 284 0
 598 02e8 0020     		movs	r0, #0
 599 02ea FFF7FEFF 		bl	LCD_PrintU32Number
 600              	.LVL101:
 285:main.c        ****                             LCD_PrintNumber(dato);
 601              		.loc 1 285 0
 602 02ee 2046     		mov	r0, r4
 603 02f0 FFF7FEFF 		bl	LCD_PrintU32Number
 604              	.LVL102:
 605              	.L42:
 286:main.c        ****                         }
 287:main.c        ****                         banderaF=false;
 606              		.loc 1 287 0
 607 02f4 5649     		ldr	r1, .L64
 608 02f6 0023     		movs	r3, #0
 609 02f8 0B71     		strb	r3, [r1, #4]
 288:main.c        ****                         cont=false;
 610              		.loc 1 288 0
 611 02fa 8B71     		strb	r3, [r1, #6]
 289:main.c        ****                         //Transpaso de datos
 290:main.c        ****                         char a;
 291:main.c        ****                         a=((dato/10)<<4)+dato%10;
 612              		.loc 1 291 0
 613 02fc A3F13333 		sub	r3, r3, #858993459
 614 0300 A3FB0423 		umull	r2, r3, r3, r4
 615 0304 DA08     		lsrs	r2, r3, #3
 616 0306 02EB8200 		add	r0, r2, r2, lsl #2
 617 030a 4300     		lsls	r3, r0, #1
 618 030c E31A     		subs	r3, r4, r3
 619 030e 03EB0213 		add	r3, r3, r2, lsl #4
 620 0312 DBB2     		uxtb	r3, r3
 621              	.LVL103:
ARM GAS  C:\Users\jefer\AppData\Local\Temp\ccK9eoPt.s 			page 17


 292:main.c        ****                         switch(item){
 622              		.loc 1 292 0
 623 0314 CA79     		ldrb	r2, [r1, #7]	@ zero_extendqisi2
 624 0316 013A     		subs	r2, r2, #1
 625 0318 032A     		cmp	r2, #3
 626 031a 7BD8     		bhi	.L39
 627 031c DFE802F0 		tbb	[pc, r2]
 628              	.L44:
 629 0320 02       		.byte	(.L43-.L44)/2
 630 0321 0D       		.byte	(.L45-.L44)/2
 631 0322 18       		.byte	(.L46-.L44)/2
 632 0323 23       		.byte	(.L47-.L44)/2
 633              		.p2align 1
 634              	.L43:
 293:main.c        ****                             case 1:{
 294:main.c        ****                                 wHoraFin[1]=a;
 635              		.loc 1 294 0
 636 0324 4B4A     		ldr	r2, .L64+4
 637 0326 5370     		strb	r3, [r2, #1]
 295:main.c        ****                                 if(dato==0){//Condicion de reset
 638              		.loc 1 295 0
 639 0328 1CB9     		cbnz	r4, .L48
 296:main.c        ****                                     item1[3]=false;
 640              		.loc 1 296 0
 641 032a 0022     		movs	r2, #0
 642 032c 484B     		ldr	r3, .L64
 643              	.LVL104:
 644 032e DA72     		strb	r2, [r3, #11]
 645              	.LVL105:
 646 0330 70E0     		b	.L39
 647              	.LVL106:
 648              	.L48:
 297:main.c        ****                                 }
 298:main.c        ****                                 else{
 299:main.c        ****                                     item1[3]=true;
 649              		.loc 1 299 0
 650 0332 0122     		movs	r2, #1
 651 0334 464B     		ldr	r3, .L64
 652              	.LVL107:
 653 0336 DA72     		strb	r2, [r3, #11]
 654              	.LVL108:
 655 0338 6CE0     		b	.L39
 656              	.LVL109:
 657              	.L45:
 300:main.c        ****                                 }
 301:main.c        ****                                 break;
 302:main.c        ****                             }
 303:main.c        ****                             case 2:{
 304:main.c        ****                                 xHoraFin[1]=a;
 658              		.loc 1 304 0
 659 033a 474A     		ldr	r2, .L64+8
 660 033c 5370     		strb	r3, [r2, #1]
 305:main.c        ****                                 if(dato==0){//Condicion de reset
 661              		.loc 1 305 0
 662 033e 1CB9     		cbnz	r4, .L49
 306:main.c        ****                                     item2[1]=false;
 663              		.loc 1 306 0
ARM GAS  C:\Users\jefer\AppData\Local\Temp\ccK9eoPt.s 			page 18


 664 0340 0022     		movs	r2, #0
 665 0342 434B     		ldr	r3, .L64
 666              	.LVL110:
 667 0344 5A73     		strb	r2, [r3, #13]
 668              	.LVL111:
 669 0346 65E0     		b	.L39
 670              	.LVL112:
 671              	.L49:
 307:main.c        ****                                 }
 308:main.c        ****                                 else{
 309:main.c        ****                                     item2[1]=true;
 672              		.loc 1 309 0
 673 0348 0122     		movs	r2, #1
 674 034a 414B     		ldr	r3, .L64
 675              	.LVL113:
 676 034c 5A73     		strb	r2, [r3, #13]
 677              	.LVL114:
 678 034e 61E0     		b	.L39
 679              	.LVL115:
 680              	.L46:
 310:main.c        ****                                 }
 311:main.c        ****                                 break;
 312:main.c        ****                             }
 313:main.c        ****                             case 3:{
 314:main.c        ****                                 yHoraFin[1]=a;
 681              		.loc 1 314 0
 682 0350 424A     		ldr	r2, .L64+12
 683 0352 5370     		strb	r3, [r2, #1]
 315:main.c        ****                                 if(dato==0){//Condicion de reset
 684              		.loc 1 315 0
 685 0354 1CB9     		cbnz	r4, .L50
 316:main.c        ****                                     item3[3]=false;
 686              		.loc 1 316 0
 687 0356 0022     		movs	r2, #0
 688 0358 3D4B     		ldr	r3, .L64
 689              	.LVL116:
 690 035a DA74     		strb	r2, [r3, #19]
 691              	.LVL117:
 692 035c 5AE0     		b	.L39
 693              	.LVL118:
 694              	.L50:
 317:main.c        ****                                 }
 318:main.c        ****                                 else{
 319:main.c        ****                                     item3[3]=true;
 695              		.loc 1 319 0
 696 035e 0122     		movs	r2, #1
 697 0360 3B4B     		ldr	r3, .L64
 698              	.LVL119:
 699 0362 DA74     		strb	r2, [r3, #19]
 700              	.LVL120:
 701 0364 56E0     		b	.L39
 702              	.LVL121:
 703              	.L47:
 320:main.c        ****                                 }
 321:main.c        ****                                 break;
 322:main.c        ****                             }
 323:main.c        ****                             case 4:{
ARM GAS  C:\Users\jefer\AppData\Local\Temp\ccK9eoPt.s 			page 19


 324:main.c        ****                                 zHoraFin[1]=a;
 704              		.loc 1 324 0
 705 0366 3E4A     		ldr	r2, .L64+16
 706 0368 5370     		strb	r3, [r2, #1]
 325:main.c        ****                                 if(dato==0){//Condicion de reset
 707              		.loc 1 325 0
 708 036a 1CB9     		cbnz	r4, .L51
 326:main.c        ****                                     item4[3]=false;
 709              		.loc 1 326 0
 710 036c 0022     		movs	r2, #0
 711 036e 384B     		ldr	r3, .L64
 712              	.LVL122:
 713 0370 DA75     		strb	r2, [r3, #23]
 714              	.LVL123:
 715 0372 4FE0     		b	.L39
 716              	.LVL124:
 717              	.L51:
 327:main.c        ****                                 }
 328:main.c        ****                                 else{
 329:main.c        ****                                     item4[3]=true;
 718              		.loc 1 329 0
 719 0374 0122     		movs	r2, #1
 720 0376 364B     		ldr	r3, .L64
 721              	.LVL125:
 722 0378 DA75     		strb	r2, [r3, #23]
 723              	.LVL126:
 724 037a 4BE0     		b	.L39
 725              	.LVL127:
 726              	.L40:
 727              	.LBE6:
 728              	.LBB7:
 330:main.c        ****                                 }                                
 331:main.c        ****                                 break;                               
 332:main.c        ****                             }
 333:main.c        ****                             default:{
 334:main.c        ****                                 break;}
 335:main.c        ****                         }
 336:main.c        ****                     }else{
 337:main.c        ****                         LCD_Position(0,5);
 729              		.loc 1 337 0
 730 037c 0521     		movs	r1, #5
 731 037e 0020     		movs	r0, #0
 732 0380 FFF7FEFF 		bl	LCD_Position
 733              	.LVL128:
 338:main.c        ****                         LCD_PrintNumber(dato);
 734              		.loc 1 338 0
 735 0384 2046     		mov	r0, r4
 736 0386 FFF7FEFF 		bl	LCD_PrintU32Number
 737              	.LVL129:
 339:main.c        ****                         LCD_PutChar(':');
 738              		.loc 1 339 0
 739 038a 3A20     		movs	r0, #58
 740 038c FFF7FEFF 		bl	LCD_PutChar
 741              	.LVL130:
 340:main.c        ****                         cont=true;
 742              		.loc 1 340 0
 743 0390 2F49     		ldr	r1, .L64
ARM GAS  C:\Users\jefer\AppData\Local\Temp\ccK9eoPt.s 			page 20


 744 0392 0123     		movs	r3, #1
 745 0394 8B71     		strb	r3, [r1, #6]
 341:main.c        ****                         //Poner datos
 342:main.c        ****                         char a;
 343:main.c        ****                         a=((dato/10)<<4)+dato%10;
 746              		.loc 1 343 0
 747 0396 03F1CC33 		add	r3, r3, #-858993460
 748 039a A3FB0423 		umull	r2, r3, r3, r4
 749 039e DA08     		lsrs	r2, r3, #3
 750 03a0 02EB8200 		add	r0, r2, r2, lsl #2
 751 03a4 4300     		lsls	r3, r0, #1
 752 03a6 E31A     		subs	r3, r4, r3
 753 03a8 03EB0213 		add	r3, r3, r2, lsl #4
 754 03ac DBB2     		uxtb	r3, r3
 755              	.LVL131:
 344:main.c        ****                         switch(item){
 756              		.loc 1 344 0
 757 03ae CA79     		ldrb	r2, [r1, #7]	@ zero_extendqisi2
 758 03b0 013A     		subs	r2, r2, #1
 759 03b2 032A     		cmp	r2, #3
 760 03b4 2ED8     		bhi	.L39
 761 03b6 DFE802F0 		tbb	[pc, r2]
 762              	.L53:
 763 03ba 02       		.byte	(.L52-.L53)/2
 764 03bb 0D       		.byte	(.L54-.L53)/2
 765 03bc 18       		.byte	(.L55-.L53)/2
 766 03bd 23       		.byte	(.L56-.L53)/2
 767              		.p2align 1
 768              	.L52:
 345:main.c        ****                             case 1:{
 346:main.c        ****                                 wHoraFin[2]=a;
 769              		.loc 1 346 0
 770 03be 254A     		ldr	r2, .L64+4
 771 03c0 9370     		strb	r3, [r2, #2]
 347:main.c        ****                                 if(dato==0){//Condicion de reset
 772              		.loc 1 347 0
 773 03c2 1CB9     		cbnz	r4, .L57
 348:main.c        ****                                     item1[2]=false;
 774              		.loc 1 348 0
 775 03c4 0022     		movs	r2, #0
 776 03c6 224B     		ldr	r3, .L64
 777              	.LVL132:
 778 03c8 9A72     		strb	r2, [r3, #10]
 779              	.LVL133:
 780 03ca 23E0     		b	.L39
 781              	.LVL134:
 782              	.L57:
 349:main.c        ****                                 }
 350:main.c        ****                                 else{
 351:main.c        ****                                     item1[2]=true;
 783              		.loc 1 351 0
 784 03cc 0122     		movs	r2, #1
 785 03ce 204B     		ldr	r3, .L64
 786              	.LVL135:
 787 03d0 9A72     		strb	r2, [r3, #10]
 788              	.LVL136:
 789 03d2 1FE0     		b	.L39
ARM GAS  C:\Users\jefer\AppData\Local\Temp\ccK9eoPt.s 			page 21


 790              	.LVL137:
 791              	.L54:
 352:main.c        ****                                 }
 353:main.c        ****                                 break;
 354:main.c        ****                             }
 355:main.c        ****                             case 2:{
 356:main.c        ****                                 xHoraFin[2]=a;
 792              		.loc 1 356 0
 793 03d4 204A     		ldr	r2, .L64+8
 794 03d6 9370     		strb	r3, [r2, #2]
 357:main.c        ****                                 if(dato==0){//Condicion de reset
 795              		.loc 1 357 0
 796 03d8 1CB9     		cbnz	r4, .L58
 358:main.c        ****                                     item2[2]=false;
 797              		.loc 1 358 0
 798 03da 0022     		movs	r2, #0
 799 03dc 1C4B     		ldr	r3, .L64
 800              	.LVL138:
 801 03de 9A73     		strb	r2, [r3, #14]
 802              	.LVL139:
 803 03e0 18E0     		b	.L39
 804              	.LVL140:
 805              	.L58:
 359:main.c        ****                                 }
 360:main.c        ****                                 else{
 361:main.c        ****                                     item2[2]=true;
 806              		.loc 1 361 0
 807 03e2 0122     		movs	r2, #1
 808 03e4 1A4B     		ldr	r3, .L64
 809              	.LVL141:
 810 03e6 9A73     		strb	r2, [r3, #14]
 811              	.LVL142:
 812 03e8 14E0     		b	.L39
 813              	.LVL143:
 814              	.L55:
 362:main.c        ****                                 }
 363:main.c        ****                                 break;
 364:main.c        ****                             }
 365:main.c        ****                             case 3:{
 366:main.c        ****                                 yHoraFin[2]=a;
 815              		.loc 1 366 0
 816 03ea 1C4A     		ldr	r2, .L64+12
 817 03ec 9370     		strb	r3, [r2, #2]
 367:main.c        ****                                 if(dato==0){//Condicion de reset
 818              		.loc 1 367 0
 819 03ee 1CB9     		cbnz	r4, .L59
 368:main.c        ****                                     item3[2]=false;
 820              		.loc 1 368 0
 821 03f0 0022     		movs	r2, #0
 822 03f2 174B     		ldr	r3, .L64
 823              	.LVL144:
 824 03f4 9A74     		strb	r2, [r3, #18]
 825              	.LVL145:
 826 03f6 0DE0     		b	.L39
 827              	.LVL146:
 828              	.L59:
 369:main.c        ****                                 }
ARM GAS  C:\Users\jefer\AppData\Local\Temp\ccK9eoPt.s 			page 22


 370:main.c        ****                                 else{
 371:main.c        ****                                     item3[2]=true;
 829              		.loc 1 371 0
 830 03f8 0122     		movs	r2, #1
 831 03fa 154B     		ldr	r3, .L64
 832              	.LVL147:
 833 03fc 9A74     		strb	r2, [r3, #18]
 834              	.LVL148:
 835 03fe 09E0     		b	.L39
 836              	.LVL149:
 837              	.L56:
 372:main.c        ****                                 }
 373:main.c        ****                                 break;
 374:main.c        ****                             }
 375:main.c        ****                             case 4:{
 376:main.c        ****                                 zHoraFin[2]=a;
 838              		.loc 1 376 0
 839 0400 174A     		ldr	r2, .L64+16
 840 0402 9370     		strb	r3, [r2, #2]
 377:main.c        ****                                 if(dato==0){//Condicion de reset
 841              		.loc 1 377 0
 842 0404 1CB9     		cbnz	r4, .L60
 378:main.c        ****                                     item4[2]=false;
 843              		.loc 1 378 0
 844 0406 0022     		movs	r2, #0
 845 0408 114B     		ldr	r3, .L64
 846              	.LVL150:
 847 040a 9A75     		strb	r2, [r3, #22]
 848              	.LVL151:
 849 040c 02E0     		b	.L39
 850              	.LVL152:
 851              	.L60:
 379:main.c        ****                                 }
 380:main.c        ****                                 else{
 381:main.c        ****                                     item4[2]=true;
 852              		.loc 1 381 0
 853 040e 0122     		movs	r2, #1
 854 0410 0F4B     		ldr	r3, .L64
 855              	.LVL153:
 856 0412 9A75     		strb	r2, [r3, #22]
 857              	.LVL154:
 858              	.L39:
 859              	.LBE7:
 382:main.c        ****                                 }
 383:main.c        ****                                 break;
 384:main.c        ****                                
 385:main.c        ****                             }
 386:main.c        ****                             default:{
 387:main.c        ****                                 break;}
 388:main.c        ****                         }
 389:main.c        ****                         
 390:main.c        ****                     }
 391:main.c        ****                 }
 392:main.c        ****                 if (banderaM==true){
 860              		.loc 1 392 0
 861 0414 0E4B     		ldr	r3, .L64
 862 0416 5B79     		ldrb	r3, [r3, #5]	@ zero_extendqisi2
ARM GAS  C:\Users\jefer\AppData\Local\Temp\ccK9eoPt.s 			page 23


 863 0418 13F0FF0F 		tst	r3, #255
 864 041c 17D0     		beq	.L1
 393:main.c        ****                     LCD_Position(0,8);
 865              		.loc 1 393 0
 866 041e 0821     		movs	r1, #8
 867 0420 0020     		movs	r0, #0
 868 0422 FFF7FEFF 		bl	LCD_Position
 869              	.LVL155:
 394:main.c        ****                     LCD_PrintNumber(dato);// muestra item
 870              		.loc 1 394 0
 871 0426 2046     		mov	r0, r4
 872 0428 FFF7FEFF 		bl	LCD_PrintU32Number
 873              	.LVL156:
 395:main.c        ****                     item=dato;
 874              		.loc 1 395 0
 875 042c 084B     		ldr	r3, .L64
 876 042e DC71     		strb	r4, [r3, #7]
 396:main.c        ****                     banderaM=false;
 877              		.loc 1 396 0
 878 0430 0022     		movs	r2, #0
 879 0432 5A71     		strb	r2, [r3, #5]
 880 0434 38BD     		pop	{r3, r4, r5, pc}
 881              	.LVL157:
 882              	.L2:
 397:main.c        ****                 }
 398:main.c        ****                 break;
 399:main.c        ****             }
 400:main.c        ****     }
 401:main.c        ****     }else{
 402:main.c        ****         if(dato=='*'){
 883              		.loc 1 402 0
 884 0436 2A28     		cmp	r0, #42
 885 0438 09D1     		bne	.L1
 403:main.c        ****             LCD_Position(0,0);
 886              		.loc 1 403 0
 887 043a 0021     		movs	r1, #0
 888 043c 0846     		mov	r0, r1
 889              	.LVL158:
 890 043e FFF7FEFF 		bl	LCD_Position
 891              	.LVL159:
 404:main.c        ****             LCD_PrintString("Connect");//Se detecta la ultima linea del inicio
 892              		.loc 1 404 0
 893 0442 0848     		ldr	r0, .L64+20
 894 0444 FFF7FEFF 		bl	LCD_PrintString
 895              	.LVL160:
 405:main.c        ****             bandera=true;
 896              		.loc 1 405 0
 897 0448 0122     		movs	r2, #1
 898 044a 014B     		ldr	r3, .L64
 899 044c 1A70     		strb	r2, [r3]
 900              	.L1:
 901 044e 38BD     		pop	{r3, r4, r5, pc}
 902              	.L65:
 903              		.align	2
 904              	.L64:
 905 0450 00000000 		.word	.LANCHOR0
 906 0454 00000000 		.word	wHoraFin
ARM GAS  C:\Users\jefer\AppData\Local\Temp\ccK9eoPt.s 			page 24


 907 0458 00000000 		.word	xHoraFin
 908 045c 00000000 		.word	yHoraFin
 909 0460 00000000 		.word	zHoraFin
 910 0464 40000000 		.word	.LC5
 911              		.cfi_endproc
 912              	.LFE68:
 913              		.size	InterrupRx, .-InterrupRx
 914              		.section	.text.InterrupA,"ax",%progbits
 915              		.align	2
 916              		.global	InterrupA
 917              		.thumb
 918              		.thumb_func
 919              		.type	InterrupA, %function
 920              	InterrupA:
 921              	.LFB73:
 406:main.c        ****         }
 407:main.c        ****         
 408:main.c        ****     }
 409:main.c        **** }
 410:main.c        **** 
 411:main.c        **** void reloj(){
 412:main.c        ****   
 413:main.c        ****         LCD_Position(1,4);
 414:main.c        ****         LCD_PrintNumber(0x03&(ds.hour>>4));
 415:main.c        ****         LCD_PrintNumber((0b00001111)&ds.hour);
 416:main.c        ****         LCD_PutChar(':');
 417:main.c        ****         LCD_PrintNumber(ds.min>>4);
 418:main.c        ****         LCD_PrintNumber((0b00001111)&ds.min);
 419:main.c        ****         LCD_PutChar(':');       
 420:main.c        ****         LCD_PrintNumber(ds.sec>>4);
 421:main.c        ****         LCD_PrintNumber((0b00001111)&ds.sec);
 422:main.c        **** }
 423:main.c        **** 
 424:main.c        **** void muestreo(){
 425:main.c        ****     //Temperatura
 426:main.c        ****     uint16 temp=0;
 427:main.c        ****     aux[0]=aux[1];//Actualiza dato pasado
 428:main.c        ****     ADC_StartConvert();
 429:main.c        ****     ADC_IsEndConversion(ADC_WAIT_FOR_RESULT);
 430:main.c        ****     temp=ADC_GetResult16();
 431:main.c        ****     aux[1]=ADC_CountsTo_mVolts(temp);
 432:main.c        ****     if((2500>aux[0])&&(aux[1]>=2500)){//Nueva medida es mayor a 2500 y la anterior era menor 2500 -
 433:main.c        ****         char t[1];
 434:main.c        ****         temp2=temp2+1;//Aumenta el numero de alertas
 435:main.c        ****         LCD_Position(0,0);
 436:main.c        ****         LCD_PrintString("Warning T #");
 437:main.c        ****         LCD_PrintNumber(temp2);
 438:main.c        ****         UART_PutString("t");
 439:main.c        ****         t[0]=(0xFF&temp2);
 440:main.c        ****         UART_PutString(t);
 441:main.c        ****         
 442:main.c        ****     }
 443:main.c        ****     temp=EEPROM_ReadByte(0);//Actualiza aca ya que en la interupcion no se puede
 444:main.c        ****     if(temp2!=temp){
 445:main.c        ****         if(temp2>temp){
 446:main.c        ****             EEPROM_WriteByte(temp2,0);
 447:main.c        ****         }else{
ARM GAS  C:\Users\jefer\AppData\Local\Temp\ccK9eoPt.s 			page 25


 448:main.c        ****             temp2=temp;
 449:main.c        ****         }    
 450:main.c        ****     }
 451:main.c        ****     
 452:main.c        **** }
 453:main.c        **** 
 454:main.c        **** void comparacion(){
 455:main.c        ****     char a[3]={};
 456:main.c        ****     if(item1[0]||item1[1]){
 457:main.c        **** //        LCD_Position(0,0);
 458:main.c        **** //        LCD_PrintString("Puede imprimir");
 459:main.c        ****         if((wHoraInicio[2]==((ds.hour)&(0b00111111)))&(wHoraInicio[1]==ds.min)&(ds.sec==0x0)){
 460:main.c        ****             PINA_Write(1);
 461:main.c        ****             sprintf(a,"w%d",1);
 462:main.c        ****             UART_PutString(a);   
 463:main.c        ****         }
 464:main.c        ****     }
 465:main.c        ****     if(item1[2]||item1[3]){
 466:main.c        ****         if((wHoraFin[2]==((ds.hour)&(0b00111111)))&(wHoraFin[1]==ds.min)&(ds.sec==0x0)){
 467:main.c        ****             PINA_Write(0);
 468:main.c        ****             
 469:main.c        ****             sprintf(a,"w%d",0);
 470:main.c        ****             UART_PutString(a);   
 471:main.c        ****         }
 472:main.c        ****     }
 473:main.c        ****     if(item2[0]||item2[1]){
 474:main.c        ****         if((xHoraInicio[2]==((ds.hour)&(0b00111111)))&(xHoraInicio[1]==ds.min)&(ds.sec==0x0)){
 475:main.c        ****             PINB_Write(1);
 476:main.c        ****             
 477:main.c        ****             sprintf(a,"x%d",1);
 478:main.c        ****             UART_PutString(a);   
 479:main.c        ****         }
 480:main.c        ****     }
 481:main.c        ****     if(item2[2]||item2[3]){
 482:main.c        ****         if((xHoraFin[2]==((ds.hour)&(0b00111111)))&(xHoraFin[1]==ds.min)&(ds.sec==0x0)){
 483:main.c        ****             PINB_Write(0);
 484:main.c        ****             
 485:main.c        ****             sprintf(a,"x%d",0);
 486:main.c        ****             UART_PutString(a);   
 487:main.c        ****         }
 488:main.c        ****     }
 489:main.c        ****     if(item3[0]||item3[1]){
 490:main.c        ****         if((yHoraInicio[2]==((ds.hour)&(0b00111111)))&(yHoraInicio[1]==ds.min)&(ds.sec==0x0)){
 491:main.c        ****             PINC_Write(1);
 492:main.c        ****             
 493:main.c        ****             sprintf(a,"y%d",1);
 494:main.c        ****             UART_PutString(a);   
 495:main.c        ****         }
 496:main.c        ****     }
 497:main.c        ****     if(item3[2]||item3[3]){
 498:main.c        ****         if((yHoraFin[2]==((ds.hour)&(0b00111111)))&(yHoraFin[1]==ds.min)&(ds.sec==0x0)){
 499:main.c        ****         PINC_Write(0);
 500:main.c        ****         
 501:main.c        ****             sprintf(a,"y%d",0);
 502:main.c        ****             UART_PutString(a);   
 503:main.c        ****         }
 504:main.c        ****     }
ARM GAS  C:\Users\jefer\AppData\Local\Temp\ccK9eoPt.s 			page 26


 505:main.c        ****     if(item4[0]||item4[1]){
 506:main.c        ****         if((zHoraInicio[2]==((ds.hour)&(0b00111111)))&(zHoraInicio[1]==ds.min)&(ds.sec==0x0)){
 507:main.c        ****         PIND_Write(1);
 508:main.c        ****         
 509:main.c        ****             sprintf(a,"z%d",1);
 510:main.c        ****             UART_PutString(a);   
 511:main.c        ****         }
 512:main.c        ****     }
 513:main.c        ****     if(item4[2]||item4[3]){        
 514:main.c        ****         if((zHoraFin[2]==((ds.hour)&(0b00111111)))&(zHoraFin[1]==ds.min)&(ds.sec==0x0)){
 515:main.c        ****         PIND_Write(0);
 516:main.c        ****         
 517:main.c        ****             sprintf(a,"z%d",0);
 518:main.c        ****             UART_PutString(a);   
 519:main.c        ****         }
 520:main.c        ****     }
 521:main.c        **** 
 522:main.c        **** }
 523:main.c        **** 
 524:main.c        **** CY_ISR(InterrupISR1){
 525:main.c        ****     char m[1];
 526:main.c        ****         temp2=temp2+1;//Aumenta el numero de alertas
 527:main.c        ****         LCD_Position(0,0);
 528:main.c        ****         LCD_PrintString("Warning M #");
 529:main.c        ****         LCD_PrintNumber(temp2);
 530:main.c        ****         UART_PutString("m");
 531:main.c        ****         m[0]=(0xFF&temp2);
 532:main.c        ****         UART_PutString(m);
 533:main.c        ****         PINMOV_ClearInterrupt();
 534:main.c        **** }
 535:main.c        **** 
 536:main.c        **** CY_ISR(InterrupA){
 922              		.loc 1 536 0
 923              		.cfi_startproc
 924              		@ args = 0, pretend = 0, frame = 0
 925              		@ frame_needed = 0, uses_anonymous_args = 0
 926 0000 10B5     		push	{r4, lr}
 927              		.cfi_def_cfa_offset 8
 928              		.cfi_offset 4, -8
 929              		.cfi_offset 14, -4
 537:main.c        **** switch(Pin_A_Read()) {
 930              		.loc 1 537 0
 931 0002 FFF7FEFF 		bl	Pin_A_Read
 932              	.LVL161:
 933 0006 1F38     		subs	r0, r0, #31
 934 0008 1F28     		cmp	r0, #31
 935 000a 00F2A380 		bhi	.L67
 936 000e DFE800F0 		tbb	[pc, r0]
 937              	.L69:
 938 0012 83       		.byte	(.L68-.L69)/2
 939 0013 A1       		.byte	(.L67-.L69)/2
 940 0014 A1       		.byte	(.L67-.L69)/2
 941 0015 A1       		.byte	(.L67-.L69)/2
 942 0016 A1       		.byte	(.L67-.L69)/2
 943 0017 A1       		.byte	(.L67-.L69)/2
 944 0018 A1       		.byte	(.L67-.L69)/2
 945 0019 A1       		.byte	(.L67-.L69)/2
ARM GAS  C:\Users\jefer\AppData\Local\Temp\ccK9eoPt.s 			page 27


 946 001a A1       		.byte	(.L67-.L69)/2
 947 001b A1       		.byte	(.L67-.L69)/2
 948 001c A1       		.byte	(.L67-.L69)/2
 949 001d A1       		.byte	(.L67-.L69)/2
 950 001e A1       		.byte	(.L67-.L69)/2
 951 001f A1       		.byte	(.L67-.L69)/2
 952 0020 A1       		.byte	(.L67-.L69)/2
 953 0021 A1       		.byte	(.L67-.L69)/2
 954 0022 64       		.byte	(.L70-.L69)/2
 955 0023 A1       		.byte	(.L67-.L69)/2
 956 0024 A1       		.byte	(.L67-.L69)/2
 957 0025 A1       		.byte	(.L67-.L69)/2
 958 0026 A1       		.byte	(.L67-.L69)/2
 959 0027 A1       		.byte	(.L67-.L69)/2
 960 0028 A1       		.byte	(.L67-.L69)/2
 961 0029 A1       		.byte	(.L67-.L69)/2
 962 002a 4F       		.byte	(.L71-.L69)/2
 963 002b A1       		.byte	(.L67-.L69)/2
 964 002c A1       		.byte	(.L67-.L69)/2
 965 002d A1       		.byte	(.L67-.L69)/2
 966 002e 3A       		.byte	(.L72-.L69)/2
 967 002f A1       		.byte	(.L67-.L69)/2
 968 0030 25       		.byte	(.L73-.L69)/2
 969 0031 10       		.byte	(.L74-.L69)/2
 970              		.p2align 1
 971              	.L74:
 538:main.c        ****        CyDelay(300);
 539:main.c        ****         case 0b00111110:{
 540:main.c        ****             PINA_Write(~PINA_Read());
 972              		.loc 1 540 0
 973 0032 FFF7FEFF 		bl	PINA_Read
 974              	.LVL162:
 975 0036 C043     		mvns	r0, r0
 976 0038 C0B2     		uxtb	r0, r0
 977 003a FFF7FEFF 		bl	PINA_Write
 978              	.LVL163:
 541:main.c        ****             UART_PutChar('W');
 979              		.loc 1 541 0
 980 003e 5720     		movs	r0, #87
 981 0040 FFF7FEFF 		bl	UART_PutChar
 982              	.LVL164:
 542:main.c        ****             if (PINA_Read()== 1)
 983              		.loc 1 542 0
 984 0044 FFF7FEFF 		bl	PINA_Read
 985              	.LVL165:
 986 0048 0128     		cmp	r0, #1
 987 004a 03D1     		bne	.L75
 543:main.c        ****             {
 544:main.c        ****                 UART_PutChar('1');
 988              		.loc 1 544 0
 989 004c 3120     		movs	r0, #49
 990 004e FFF7FEFF 		bl	UART_PutChar
 991              	.LVL166:
 992 0052 7FE0     		b	.L67
 993              	.L75:
 545:main.c        ****             }else{
 546:main.c        ****                 UART_PutChar('0');
ARM GAS  C:\Users\jefer\AppData\Local\Temp\ccK9eoPt.s 			page 28


 994              		.loc 1 546 0
 995 0054 3020     		movs	r0, #48
 996 0056 FFF7FEFF 		bl	UART_PutChar
 997              	.LVL167:
 998 005a 7BE0     		b	.L67
 999              	.L73:
 547:main.c        ****             }
 548:main.c        ****              break;
 549:main.c        ****         }
 550:main.c        ****         case 0b00111101:{
 551:main.c        ****             PINC_Write(~PINC_Read());
 1000              		.loc 1 551 0
 1001 005c FFF7FEFF 		bl	PINC_Read
 1002              	.LVL168:
 1003 0060 C043     		mvns	r0, r0
 1004 0062 C0B2     		uxtb	r0, r0
 1005 0064 FFF7FEFF 		bl	PINC_Write
 1006              	.LVL169:
 552:main.c        ****             UART_PutChar('Y');
 1007              		.loc 1 552 0
 1008 0068 5920     		movs	r0, #89
 1009 006a FFF7FEFF 		bl	UART_PutChar
 1010              	.LVL170:
 553:main.c        ****             if (PINC_Read()== 1)
 1011              		.loc 1 553 0
 1012 006e FFF7FEFF 		bl	PINC_Read
 1013              	.LVL171:
 1014 0072 0128     		cmp	r0, #1
 1015 0074 03D1     		bne	.L76
 554:main.c        ****             {
 555:main.c        ****                 UART_PutChar('1');
 1016              		.loc 1 555 0
 1017 0076 3120     		movs	r0, #49
 1018 0078 FFF7FEFF 		bl	UART_PutChar
 1019              	.LVL172:
 1020 007c 6AE0     		b	.L67
 1021              	.L76:
 556:main.c        ****             }else{
 557:main.c        ****                 UART_PutChar('0');
 1022              		.loc 1 557 0
 1023 007e 3020     		movs	r0, #48
 1024 0080 FFF7FEFF 		bl	UART_PutChar
 1025              	.LVL173:
 1026 0084 66E0     		b	.L67
 1027              	.L72:
 558:main.c        ****             }
 559:main.c        ****             break;   
 560:main.c        ****         }
 561:main.c        ****         case 0b00111011:{
 562:main.c        ****             PIND_Write(~PIND_Read());
 1028              		.loc 1 562 0
 1029 0086 FFF7FEFF 		bl	PIND_Read
 1030              	.LVL174:
 1031 008a C043     		mvns	r0, r0
 1032 008c C0B2     		uxtb	r0, r0
 1033 008e FFF7FEFF 		bl	PIND_Write
 1034              	.LVL175:
ARM GAS  C:\Users\jefer\AppData\Local\Temp\ccK9eoPt.s 			page 29


 563:main.c        ****             UART_PutChar('Z');
 1035              		.loc 1 563 0
 1036 0092 5A20     		movs	r0, #90
 1037 0094 FFF7FEFF 		bl	UART_PutChar
 1038              	.LVL176:
 564:main.c        ****             if (PIND_Read()== 1)
 1039              		.loc 1 564 0
 1040 0098 FFF7FEFF 		bl	PIND_Read
 1041              	.LVL177:
 1042 009c 0128     		cmp	r0, #1
 1043 009e 03D1     		bne	.L77
 565:main.c        ****             {
 566:main.c        ****                 UART_PutChar('1');
 1044              		.loc 1 566 0
 1045 00a0 3120     		movs	r0, #49
 1046 00a2 FFF7FEFF 		bl	UART_PutChar
 1047              	.LVL178:
 1048 00a6 55E0     		b	.L67
 1049              	.L77:
 567:main.c        ****             }else{
 568:main.c        ****                 UART_PutChar('0');
 1050              		.loc 1 568 0
 1051 00a8 3020     		movs	r0, #48
 1052 00aa FFF7FEFF 		bl	UART_PutChar
 1053              	.LVL179:
 1054 00ae 51E0     		b	.L67
 1055              	.L71:
 569:main.c        ****             }
 570:main.c        ****             break;
 571:main.c        ****         }
 572:main.c        ****         case 0b00110111:{
 573:main.c        ****             PINB_Write(~PINB_Read());
 1056              		.loc 1 573 0
 1057 00b0 FFF7FEFF 		bl	PINB_Read
 1058              	.LVL180:
 1059 00b4 C043     		mvns	r0, r0
 1060 00b6 C0B2     		uxtb	r0, r0
 1061 00b8 FFF7FEFF 		bl	PINB_Write
 1062              	.LVL181:
 574:main.c        ****             UART_PutChar('X');
 1063              		.loc 1 574 0
 1064 00bc 5820     		movs	r0, #88
 1065 00be FFF7FEFF 		bl	UART_PutChar
 1066              	.LVL182:
 575:main.c        ****             if (PINB_Read()== 1)
 1067              		.loc 1 575 0
 1068 00c2 FFF7FEFF 		bl	PINB_Read
 1069              	.LVL183:
 1070 00c6 0128     		cmp	r0, #1
 1071 00c8 03D1     		bne	.L78
 576:main.c        ****             {
 577:main.c        ****                 UART_PutChar('1');
 1072              		.loc 1 577 0
 1073 00ca 3120     		movs	r0, #49
 1074 00cc FFF7FEFF 		bl	UART_PutChar
 1075              	.LVL184:
 1076 00d0 40E0     		b	.L67
ARM GAS  C:\Users\jefer\AppData\Local\Temp\ccK9eoPt.s 			page 30


 1077              	.L78:
 578:main.c        ****             }else{
 579:main.c        ****                 UART_PutChar('0');
 1078              		.loc 1 579 0
 1079 00d2 3020     		movs	r0, #48
 1080 00d4 FFF7FEFF 		bl	UART_PutChar
 1081              	.LVL185:
 1082 00d8 3CE0     		b	.L67
 1083              	.L70:
 1084              	.LBB8:
 580:main.c        ****             }
 581:main.c        ****             
 582:main.c        ****             break;
 583:main.c        ****         }
 584:main.c        ****         case 0b00101111:{
 585:main.c        ****             
 586:main.c        ****             if(dato<=90)
 1085              		.loc 1 586 0
 1086 00da 204B     		ldr	r3, .L82
 1087 00dc 1B7E     		ldrb	r3, [r3, #24]	@ zero_extendqisi2
 1088 00de DBB2     		uxtb	r3, r3
 1089 00e0 5A2B     		cmp	r3, #90
 1090 00e2 04D8     		bhi	.L79
 587:main.c        ****             {
 588:main.c        ****                 dato=dato+10;
 1091              		.loc 1 588 0
 1092 00e4 1D4A     		ldr	r2, .L82
 1093 00e6 137E     		ldrb	r3, [r2, #24]	@ zero_extendqisi2
 1094 00e8 0A33     		adds	r3, r3, #10
 1095 00ea DBB2     		uxtb	r3, r3
 1096 00ec 1376     		strb	r3, [r2, #24]
 1097              	.L79:
 589:main.c        ****             }
 590:main.c        ****             
 591:main.c        ****             UART_PutChar('Q');      
 1098              		.loc 1 591 0
 1099 00ee 5120     		movs	r0, #81
 1100 00f0 FFF7FEFF 		bl	UART_PutChar
 1101              	.LVL186:
 592:main.c        ****             char dimmer=((255*dato)/100);
 1102              		.loc 1 592 0
 1103 00f4 194A     		ldr	r2, .L82
 1104 00f6 137E     		ldrb	r3, [r2, #24]	@ zero_extendqisi2
 1105 00f8 C3EB0323 		rsb	r3, r3, r3, lsl #8
 1106 00fc 184C     		ldr	r4, .L82+4
 1107 00fe 84FB0314 		smull	r1, r4, r4, r3
 1108 0102 DB17     		asrs	r3, r3, #31
 1109 0104 C3EB6414 		rsb	r4, r3, r4, asr #5
 1110 0108 E4B2     		uxtb	r4, r4
 1111              	.LVL187:
 593:main.c        ****             UART_PutChar(dato);
 1112              		.loc 1 593 0
 1113 010a 107E     		ldrb	r0, [r2, #24]	@ zero_extendqisi2
 1114 010c FFF7FEFF 		bl	UART_PutChar
 1115              	.LVL188:
 594:main.c        ****             PWM_WriteCompare2(dimmer);            
 1116              		.loc 1 594 0
ARM GAS  C:\Users\jefer\AppData\Local\Temp\ccK9eoPt.s 			page 31


 1117 0110 2046     		mov	r0, r4
 1118 0112 FFF7FEFF 		bl	PWM_WriteCompare2
 1119              	.LVL189:
 595:main.c        ****             break;
 1120              		.loc 1 595 0
 1121 0116 1DE0     		b	.L67
 1122              	.LVL190:
 1123              	.L68:
 1124              	.LBE8:
 1125              	.LBB9:
 596:main.c        ****         }
 597:main.c        ****         case 0b00011111:{
 598:main.c        ****             
 599:main.c        ****                 if(dato>=10)
 1126              		.loc 1 599 0
 1127 0118 104B     		ldr	r3, .L82
 1128 011a 1B7E     		ldrb	r3, [r3, #24]	@ zero_extendqisi2
 1129 011c DBB2     		uxtb	r3, r3
 1130 011e 092B     		cmp	r3, #9
 1131 0120 04D9     		bls	.L80
 600:main.c        ****                 {
 601:main.c        ****                   dato=dato-10;
 1132              		.loc 1 601 0
 1133 0122 0E4A     		ldr	r2, .L82
 1134 0124 137E     		ldrb	r3, [r2, #24]	@ zero_extendqisi2
 1135 0126 0A3B     		subs	r3, r3, #10
 1136 0128 DBB2     		uxtb	r3, r3
 1137 012a 1376     		strb	r3, [r2, #24]
 1138              	.L80:
 602:main.c        ****                 }
 603:main.c        ****                 
 604:main.c        ****             UART_PutChar('Q');            
 1139              		.loc 1 604 0
 1140 012c 5120     		movs	r0, #81
 1141 012e FFF7FEFF 		bl	UART_PutChar
 1142              	.LVL191:
 605:main.c        ****             char dimmer=((255*dato)/100);
 1143              		.loc 1 605 0
 1144 0132 0A4A     		ldr	r2, .L82
 1145 0134 137E     		ldrb	r3, [r2, #24]	@ zero_extendqisi2
 1146 0136 C3EB0323 		rsb	r3, r3, r3, lsl #8
 1147 013a 094C     		ldr	r4, .L82+4
 1148 013c 84FB0314 		smull	r1, r4, r4, r3
 1149 0140 DB17     		asrs	r3, r3, #31
 1150 0142 C3EB6414 		rsb	r4, r3, r4, asr #5
 1151 0146 E4B2     		uxtb	r4, r4
 1152              	.LVL192:
 606:main.c        ****             UART_PutChar(dato);
 1153              		.loc 1 606 0
 1154 0148 107E     		ldrb	r0, [r2, #24]	@ zero_extendqisi2
 1155 014a FFF7FEFF 		bl	UART_PutChar
 1156              	.LVL193:
 607:main.c        ****             PWM_WriteCompare2(dimmer);
 1157              		.loc 1 607 0
 1158 014e 2046     		mov	r0, r4
 1159 0150 FFF7FEFF 		bl	PWM_WriteCompare2
 1160              	.LVL194:
ARM GAS  C:\Users\jefer\AppData\Local\Temp\ccK9eoPt.s 			page 32


 1161              	.L67:
 1162              	.LBE9:
 608:main.c        ****             break;
 609:main.c        ****         }default:{
 610:main.c        ****             break;
 611:main.c        ****         }
 612:main.c        ****     }
 613:main.c        ****    Pin_A_ClearInterrupt();
 1163              		.loc 1 613 0
 1164 0154 FFF7FEFF 		bl	Pin_A_ClearInterrupt
 1165              	.LVL195:
 1166 0158 10BD     		pop	{r4, pc}
 1167              	.L83:
 1168 015a 00BF     		.align	2
 1169              	.L82:
 1170 015c 00000000 		.word	.LANCHOR0
 1171 0160 1F85EB51 		.word	1374389535
 1172              		.cfi_endproc
 1173              	.LFE73:
 1174              		.size	InterrupA, .-InterrupA
 1175              		.section	.text.DS_begintx,"ax",%progbits
 1176              		.align	2
 1177              		.global	DS_begintx
 1178              		.thumb
 1179              		.thumb_func
 1180              		.type	DS_begintx, %function
 1181              	DS_begintx:
 1182              	.LFB64:
  58:main.c        ****         do{
 1183              		.loc 1 58 0
 1184              		.cfi_startproc
 1185              		@ args = 0, pretend = 0, frame = 0
 1186              		@ frame_needed = 0, uses_anonymous_args = 0
 1187 0000 08B5     		push	{r3, lr}
 1188              		.cfi_def_cfa_offset 8
 1189              		.cfi_offset 3, -8
 1190              		.cfi_offset 14, -4
 1191              	.L85:
  61:main.c        **** }
 1192              		.loc 1 61 0 discriminator 1
 1193 0002 0021     		movs	r1, #0
 1194 0004 6820     		movs	r0, #104
 1195 0006 FFF7FEFF 		bl	I2C_MasterSendStart
 1196              	.LVL196:
 1197 000a 0028     		cmp	r0, #0
 1198 000c F9D1     		bne	.L85
  62:main.c        **** 
 1199              		.loc 1 62 0
 1200 000e 08BD     		pop	{r3, pc}
 1201              		.cfi_endproc
 1202              	.LFE64:
 1203              		.size	DS_begintx, .-DS_begintx
 1204              		.section	.text.DS_init,"ax",%progbits
 1205              		.align	2
 1206              		.global	DS_init
 1207              		.thumb
 1208              		.thumb_func
ARM GAS  C:\Users\jefer\AppData\Local\Temp\ccK9eoPt.s 			page 33


 1209              		.type	DS_init, %function
 1210              	DS_init:
 1211              	.LFB65:
  64:main.c        ****     DS_begintx();
 1212              		.loc 1 64 0
 1213              		.cfi_startproc
 1214              		@ args = 0, pretend = 0, frame = 0
 1215              		@ frame_needed = 0, uses_anonymous_args = 0
 1216 0000 08B5     		push	{r3, lr}
 1217              		.cfi_def_cfa_offset 8
 1218              		.cfi_offset 3, -8
 1219              		.cfi_offset 14, -4
  65:main.c        ****     I2C_MasterWriteByte(direccion_de_registro_control);  
 1220              		.loc 1 65 0
 1221 0002 FFF7FEFF 		bl	DS_begintx
 1222              	.LVL197:
  66:main.c        ****     I2C_MasterWriteByte(registro_control);
 1223              		.loc 1 66 0
 1224 0006 0720     		movs	r0, #7
 1225 0008 FFF7FEFF 		bl	I2C_MasterWriteByte
 1226              	.LVL198:
  67:main.c        ****     I2C_MasterSendStop();
 1227              		.loc 1 67 0
 1228 000c 9120     		movs	r0, #145
 1229 000e FFF7FEFF 		bl	I2C_MasterWriteByte
 1230              	.LVL199:
  68:main.c        **** }
 1231              		.loc 1 68 0
 1232 0012 FFF7FEFF 		bl	I2C_MasterSendStop
 1233              	.LVL200:
 1234 0016 08BD     		pop	{r3, pc}
 1235              		.cfi_endproc
 1236              	.LFE65:
 1237              		.size	DS_init, .-DS_init
 1238              		.section	.text.DS_set_data,"ax",%progbits
 1239              		.align	2
 1240              		.global	DS_set_data
 1241              		.thumb
 1242              		.thumb_func
 1243              		.type	DS_set_data, %function
 1244              	DS_set_data:
 1245              	.LFB66:
  71:main.c        ****     uint8 i; 
 1246              		.loc 1 71 0
 1247              		.cfi_startproc
 1248              		@ args = 0, pretend = 0, frame = 0
 1249              		@ frame_needed = 0, uses_anonymous_args = 0
 1250 0000 10B5     		push	{r4, lr}
 1251              		.cfi_def_cfa_offset 8
 1252              		.cfi_offset 4, -8
 1253              		.cfi_offset 14, -4
 1254              	.LVL201:
  74:main.c        ****         DS_begintx();
 1255              		.loc 1 74 0
 1256 0002 0024     		movs	r4, #0
 1257 0004 0CE0     		b	.L90
 1258              	.LVL202:
ARM GAS  C:\Users\jefer\AppData\Local\Temp\ccK9eoPt.s 			page 34


 1259              	.L91:
  75:main.c        ****         I2C_MasterWriteByte(i);     // Escribe la posicion 
 1260              		.loc 1 75 0 discriminator 3
 1261 0006 FFF7FEFF 		bl	DS_begintx
 1262              	.LVL203:
  76:main.c        ****         I2C_MasterWriteByte(ds.datos[i]);            // Escribe el dato correspondiente
 1263              		.loc 1 76 0 discriminator 3
 1264 000a 2046     		mov	r0, r4
 1265 000c FFF7FEFF 		bl	I2C_MasterWriteByte
 1266              	.LVL204:
  77:main.c        ****         I2C_MasterSendStop();
 1267              		.loc 1 77 0 discriminator 3
 1268 0010 054B     		ldr	r3, .L93
 1269 0012 185D     		ldrb	r0, [r3, r4]	@ zero_extendqisi2
 1270 0014 FFF7FEFF 		bl	I2C_MasterWriteByte
 1271              	.LVL205:
  78:main.c        ****     }
 1272              		.loc 1 78 0 discriminator 3
 1273 0018 FFF7FEFF 		bl	I2C_MasterSendStop
 1274              	.LVL206:
  74:main.c        ****         DS_begintx();
 1275              		.loc 1 74 0 discriminator 3
 1276 001c 0134     		adds	r4, r4, #1
 1277              	.LVL207:
 1278 001e E4B2     		uxtb	r4, r4
 1279              	.LVL208:
 1280              	.L90:
  74:main.c        ****         DS_begintx();
 1281              		.loc 1 74 0 is_stmt 0 discriminator 1
 1282 0020 072C     		cmp	r4, #7
 1283 0022 F0D9     		bls	.L91
  80:main.c        **** 
 1284              		.loc 1 80 0 is_stmt 1
 1285 0024 10BD     		pop	{r4, pc}
 1286              	.LVL209:
 1287              	.L94:
 1288 0026 00BF     		.align	2
 1289              	.L93:
 1290 0028 00000000 		.word	ds
 1291              		.cfi_endproc
 1292              	.LFE66:
 1293              		.size	DS_set_data, .-DS_set_data
 1294              		.section	.text.DS_get_data,"ax",%progbits
 1295              		.align	2
 1296              		.global	DS_get_data
 1297              		.thumb
 1298              		.thumb_func
 1299              		.type	DS_get_data, %function
 1300              	DS_get_data:
 1301              	.LFB67:
  82:main.c        ****         uint8 i;
 1302              		.loc 1 82 0
 1303              		.cfi_startproc
 1304              		@ args = 0, pretend = 0, frame = 0
 1305              		@ frame_needed = 0, uses_anonymous_args = 0
 1306 0000 10B5     		push	{r4, lr}
 1307              		.cfi_def_cfa_offset 8
ARM GAS  C:\Users\jefer\AppData\Local\Temp\ccK9eoPt.s 			page 35


 1308              		.cfi_offset 4, -8
 1309              		.cfi_offset 14, -4
 1310              	.LVL210:
  84:main.c        ****         DS_begintx();
 1311              		.loc 1 84 0
 1312 0002 0024     		movs	r4, #0
 1313 0004 11E0     		b	.L96
 1314              	.LVL211:
 1315              	.L97:
  85:main.c        ****         I2C_MasterWriteByte(i);//Pone direccion de memoria que quiere leer 
 1316              		.loc 1 85 0 discriminator 3
 1317 0006 FFF7FEFF 		bl	DS_begintx
 1318              	.LVL212:
  86:main.c        ****         I2C_MasterSendRestart(DS1307_dir, I2C_READ_XFER_MODE); // Re transmite para obtener datos
 1319              		.loc 1 86 0 discriminator 3
 1320 000a 2046     		mov	r0, r4
 1321 000c FFF7FEFF 		bl	I2C_MasterWriteByte
 1322              	.LVL213:
  87:main.c        ****         ds.datos[i]=I2C_MasterReadByte(I2C_NAK_DATA);
 1323              		.loc 1 87 0 discriminator 3
 1324 0010 0121     		movs	r1, #1
 1325 0012 6820     		movs	r0, #104
 1326 0014 FFF7FEFF 		bl	I2C_MasterSendRestart
 1327              	.LVL214:
  88:main.c        ****         I2C_MasterSendStop();
 1328              		.loc 1 88 0 discriminator 3
 1329 0018 0020     		movs	r0, #0
 1330 001a FFF7FEFF 		bl	I2C_MasterReadByte
 1331              	.LVL215:
 1332 001e 044B     		ldr	r3, .L99
 1333 0020 1855     		strb	r0, [r3, r4]
  89:main.c        ****     }
 1334              		.loc 1 89 0 discriminator 3
 1335 0022 FFF7FEFF 		bl	I2C_MasterSendStop
 1336              	.LVL216:
  84:main.c        ****         DS_begintx();
 1337              		.loc 1 84 0 discriminator 3
 1338 0026 0134     		adds	r4, r4, #1
 1339              	.LVL217:
 1340 0028 E4B2     		uxtb	r4, r4
 1341              	.LVL218:
 1342              	.L96:
  84:main.c        ****         DS_begintx();
 1343              		.loc 1 84 0 is_stmt 0 discriminator 1
 1344 002a 072C     		cmp	r4, #7
 1345 002c EBD9     		bls	.L97
  92:main.c        **** 
 1346              		.loc 1 92 0 is_stmt 1
 1347 002e 10BD     		pop	{r4, pc}
 1348              	.LVL219:
 1349              	.L100:
 1350              		.align	2
 1351              	.L99:
 1352 0030 00000000 		.word	ds
 1353              		.cfi_endproc
 1354              	.LFE67:
 1355              		.size	DS_get_data, .-DS_get_data
ARM GAS  C:\Users\jefer\AppData\Local\Temp\ccK9eoPt.s 			page 36


 1356              		.section	.text.reloj,"ax",%progbits
 1357              		.align	2
 1358              		.global	reloj
 1359              		.thumb
 1360              		.thumb_func
 1361              		.type	reloj, %function
 1362              	reloj:
 1363              	.LFB69:
 411:main.c        ****   
 1364              		.loc 1 411 0
 1365              		.cfi_startproc
 1366              		@ args = 0, pretend = 0, frame = 0
 1367              		@ frame_needed = 0, uses_anonymous_args = 0
 1368 0000 10B5     		push	{r4, lr}
 1369              		.cfi_def_cfa_offset 8
 1370              		.cfi_offset 4, -8
 1371              		.cfi_offset 14, -4
 413:main.c        ****         LCD_PrintNumber(0x03&(ds.hour>>4));
 1372              		.loc 1 413 0
 1373 0002 0421     		movs	r1, #4
 1374 0004 0120     		movs	r0, #1
 1375 0006 FFF7FEFF 		bl	LCD_Position
 1376              	.LVL220:
 414:main.c        ****         LCD_PrintNumber((0b00001111)&ds.hour);
 1377              		.loc 1 414 0
 1378 000a 124C     		ldr	r4, .L103
 1379 000c A078     		ldrb	r0, [r4, #2]	@ zero_extendqisi2
 1380 000e C0F30110 		ubfx	r0, r0, #4, #2
 1381 0012 FFF7FEFF 		bl	LCD_PrintU32Number
 1382              	.LVL221:
 415:main.c        ****         LCD_PutChar(':');
 1383              		.loc 1 415 0
 1384 0016 A078     		ldrb	r0, [r4, #2]	@ zero_extendqisi2
 1385 0018 00F00F00 		and	r0, r0, #15
 1386 001c FFF7FEFF 		bl	LCD_PrintU32Number
 1387              	.LVL222:
 416:main.c        ****         LCD_PrintNumber(ds.min>>4);
 1388              		.loc 1 416 0
 1389 0020 3A20     		movs	r0, #58
 1390 0022 FFF7FEFF 		bl	LCD_PutChar
 1391              	.LVL223:
 417:main.c        ****         LCD_PrintNumber((0b00001111)&ds.min);
 1392              		.loc 1 417 0
 1393 0026 6078     		ldrb	r0, [r4, #1]	@ zero_extendqisi2
 1394 0028 0009     		lsrs	r0, r0, #4
 1395 002a FFF7FEFF 		bl	LCD_PrintU32Number
 1396              	.LVL224:
 418:main.c        ****         LCD_PutChar(':');       
 1397              		.loc 1 418 0
 1398 002e 6078     		ldrb	r0, [r4, #1]	@ zero_extendqisi2
 1399 0030 00F00F00 		and	r0, r0, #15
 1400 0034 FFF7FEFF 		bl	LCD_PrintU32Number
 1401              	.LVL225:
 419:main.c        ****         LCD_PrintNumber(ds.sec>>4);
 1402              		.loc 1 419 0
 1403 0038 3A20     		movs	r0, #58
 1404 003a FFF7FEFF 		bl	LCD_PutChar
ARM GAS  C:\Users\jefer\AppData\Local\Temp\ccK9eoPt.s 			page 37


 1405              	.LVL226:
 420:main.c        ****         LCD_PrintNumber((0b00001111)&ds.sec);
 1406              		.loc 1 420 0
 1407 003e 2078     		ldrb	r0, [r4]	@ zero_extendqisi2
 1408 0040 0009     		lsrs	r0, r0, #4
 1409 0042 FFF7FEFF 		bl	LCD_PrintU32Number
 1410              	.LVL227:
 421:main.c        **** }
 1411              		.loc 1 421 0
 1412 0046 2078     		ldrb	r0, [r4]	@ zero_extendqisi2
 1413 0048 00F00F00 		and	r0, r0, #15
 1414 004c FFF7FEFF 		bl	LCD_PrintU32Number
 1415              	.LVL228:
 1416 0050 10BD     		pop	{r4, pc}
 1417              	.L104:
 1418 0052 00BF     		.align	2
 1419              	.L103:
 1420 0054 00000000 		.word	ds
 1421              		.cfi_endproc
 1422              	.LFE69:
 1423              		.size	reloj, .-reloj
 1424              		.section	.text.muestreo,"ax",%progbits
 1425              		.align	2
 1426              		.global	muestreo
 1427              		.thumb
 1428              		.thumb_func
 1429              		.type	muestreo, %function
 1430              	muestreo:
 1431              	.LFB70:
 424:main.c        ****     //Temperatura
 1432              		.loc 1 424 0
 1433              		.cfi_startproc
 1434              		@ args = 0, pretend = 0, frame = 8
 1435              		@ frame_needed = 0, uses_anonymous_args = 0
 1436 0000 10B5     		push	{r4, lr}
 1437              		.cfi_def_cfa_offset 8
 1438              		.cfi_offset 4, -8
 1439              		.cfi_offset 14, -4
 1440 0002 82B0     		sub	sp, sp, #8
 1441              		.cfi_def_cfa_offset 16
 1442              	.LVL229:
 427:main.c        ****     ADC_StartConvert();
 1443              		.loc 1 427 0
 1444 0004 234C     		ldr	r4, .L110
 1445 0006 E38B     		ldrh	r3, [r4, #30]
 1446 0008 A383     		strh	r3, [r4, #28]	@ movhi
 428:main.c        ****     ADC_IsEndConversion(ADC_WAIT_FOR_RESULT);
 1447              		.loc 1 428 0
 1448 000a FFF7FEFF 		bl	ADC_StartConvert
 1449              	.LVL230:
 429:main.c        ****     temp=ADC_GetResult16();
 1450              		.loc 1 429 0
 1451 000e 0020     		movs	r0, #0
 1452 0010 FFF7FEFF 		bl	ADC_IsEndConversion
 1453              	.LVL231:
 430:main.c        ****     aux[1]=ADC_CountsTo_mVolts(temp);
 1454              		.loc 1 430 0
ARM GAS  C:\Users\jefer\AppData\Local\Temp\ccK9eoPt.s 			page 38


 1455 0014 FFF7FEFF 		bl	ADC_GetResult16
 1456              	.LVL232:
 431:main.c        ****     if((2500>aux[0])&&(aux[1]>=2500)){//Nueva medida es mayor a 2500 y la anterior era menor 2500 -
 1457              		.loc 1 431 0
 1458 0018 FFF7FEFF 		bl	ADC_CountsTo_mVolts
 1459              	.LVL233:
 1460 001c 80B2     		uxth	r0, r0
 1461 001e E083     		strh	r0, [r4, #30]	@ movhi
 432:main.c        ****         char t[1];
 1462              		.loc 1 432 0
 1463 0020 A28B     		ldrh	r2, [r4, #28]
 1464 0022 40F6C313 		movw	r3, #2499
 1465 0026 9A42     		cmp	r2, r3
 1466 0028 1AD8     		bhi	.L106
 432:main.c        ****         char t[1];
 1467              		.loc 1 432 0 is_stmt 0 discriminator 1
 1468 002a 9842     		cmp	r0, r3
 1469 002c 18D9     		bls	.L106
 1470              	.LBB10:
 434:main.c        ****         LCD_Position(0,0);
 1471              		.loc 1 434 0 is_stmt 1
 1472 002e 238C     		ldrh	r3, [r4, #32]
 1473 0030 9BB2     		uxth	r3, r3
 1474 0032 0133     		adds	r3, r3, #1
 1475 0034 9BB2     		uxth	r3, r3
 1476 0036 2384     		strh	r3, [r4, #32]	@ movhi
 435:main.c        ****         LCD_PrintString("Warning T #");
 1477              		.loc 1 435 0
 1478 0038 0021     		movs	r1, #0
 1479 003a 0846     		mov	r0, r1
 1480 003c FFF7FEFF 		bl	LCD_Position
 1481              	.LVL234:
 436:main.c        ****         LCD_PrintNumber(temp2);
 1482              		.loc 1 436 0
 1483 0040 1548     		ldr	r0, .L110+4
 1484 0042 FFF7FEFF 		bl	LCD_PrintString
 1485              	.LVL235:
 437:main.c        ****         UART_PutString("t");
 1486              		.loc 1 437 0
 1487 0046 208C     		ldrh	r0, [r4, #32]
 1488 0048 80B2     		uxth	r0, r0
 1489 004a FFF7FEFF 		bl	LCD_PrintU32Number
 1490              	.LVL236:
 438:main.c        ****         t[0]=(0xFF&temp2);
 1491              		.loc 1 438 0
 1492 004e 1348     		ldr	r0, .L110+8
 1493 0050 FFF7FEFF 		bl	UART_PutString
 1494              	.LVL237:
 439:main.c        ****         UART_PutString(t);
 1495              		.loc 1 439 0
 1496 0054 238C     		ldrh	r3, [r4, #32]
 1497 0056 02A8     		add	r0, sp, #8
 1498 0058 00F8043D 		strb	r3, [r0, #-4]!
 440:main.c        ****         
 1499              		.loc 1 440 0
 1500 005c FFF7FEFF 		bl	UART_PutString
 1501              	.LVL238:
ARM GAS  C:\Users\jefer\AppData\Local\Temp\ccK9eoPt.s 			page 39


 1502              	.L106:
 1503              	.LBE10:
 443:main.c        ****     if(temp2!=temp){
 1504              		.loc 1 443 0
 1505 0060 0020     		movs	r0, #0
 1506 0062 FFF7FEFF 		bl	EEPROM_ReadByte
 1507              	.LVL239:
 1508 0066 80B2     		uxth	r0, r0
 1509              	.LVL240:
 444:main.c        ****         if(temp2>temp){
 1510              		.loc 1 444 0
 1511 0068 0A4B     		ldr	r3, .L110
 1512 006a 1B8C     		ldrh	r3, [r3, #32]
 1513 006c 9BB2     		uxth	r3, r3
 1514 006e 9842     		cmp	r0, r3
 1515 0070 0DD0     		beq	.L105
 445:main.c        ****             EEPROM_WriteByte(temp2,0);
 1516              		.loc 1 445 0
 1517 0072 084B     		ldr	r3, .L110
 1518 0074 1B8C     		ldrh	r3, [r3, #32]
 1519 0076 9BB2     		uxth	r3, r3
 1520 0078 9842     		cmp	r0, r3
 1521 007a 06D2     		bcs	.L108
 446:main.c        ****         }else{
 1522              		.loc 1 446 0
 1523 007c 054B     		ldr	r3, .L110
 1524 007e 188C     		ldrh	r0, [r3, #32]
 1525              	.LVL241:
 1526 0080 0021     		movs	r1, #0
 1527 0082 C0B2     		uxtb	r0, r0
 1528 0084 FFF7FEFF 		bl	EEPROM_WriteByte
 1529              	.LVL242:
 1530 0088 01E0     		b	.L105
 1531              	.LVL243:
 1532              	.L108:
 448:main.c        ****         }    
 1533              		.loc 1 448 0
 1534 008a 024B     		ldr	r3, .L110
 1535 008c 1884     		strh	r0, [r3, #32]	@ movhi
 1536              	.LVL244:
 1537              	.L105:
 452:main.c        **** 
 1538              		.loc 1 452 0
 1539 008e 02B0     		add	sp, sp, #8
 1540              		.cfi_def_cfa_offset 8
 1541              		@ sp needed
 1542 0090 10BD     		pop	{r4, pc}
 1543              	.L111:
 1544 0092 00BF     		.align	2
 1545              	.L110:
 1546 0094 00000000 		.word	.LANCHOR0
 1547 0098 48000000 		.word	.LC6
 1548 009c 54000000 		.word	.LC7
 1549              		.cfi_endproc
 1550              	.LFE70:
 1551              		.size	muestreo, .-muestreo
 1552              		.section	.text.comparacion,"ax",%progbits
ARM GAS  C:\Users\jefer\AppData\Local\Temp\ccK9eoPt.s 			page 40


 1553              		.align	2
 1554              		.global	comparacion
 1555              		.thumb
 1556              		.thumb_func
 1557              		.type	comparacion, %function
 1558              	comparacion:
 1559              	.LFB71:
 454:main.c        ****     char a[3]={};
 1560              		.loc 1 454 0
 1561              		.cfi_startproc
 1562              		@ args = 0, pretend = 0, frame = 8
 1563              		@ frame_needed = 0, uses_anonymous_args = 0
 1564 0000 10B5     		push	{r4, lr}
 1565              		.cfi_def_cfa_offset 8
 1566              		.cfi_offset 4, -8
 1567              		.cfi_offset 14, -4
 1568 0002 82B0     		sub	sp, sp, #8
 1569              		.cfi_def_cfa_offset 16
 455:main.c        ****     if(item1[0]||item1[1]){
 1570              		.loc 1 455 0
 1571 0004 0023     		movs	r3, #0
 1572 0006 ADF80430 		strh	r3, [sp, #4]	@ movhi
 1573 000a 8DF80630 		strb	r3, [sp, #6]
 456:main.c        **** //        LCD_Position(0,0);
 1574              		.loc 1 456 0
 1575 000e A14B     		ldr	r3, .L130
 1576 0010 1B7A     		ldrb	r3, [r3, #8]	@ zero_extendqisi2
 1577 0012 13F0FF0F 		tst	r3, #255
 1578 0016 04D1     		bne	.L113
 456:main.c        **** //        LCD_Position(0,0);
 1579              		.loc 1 456 0 is_stmt 0 discriminator 1
 1580 0018 9E4B     		ldr	r3, .L130
 1581 001a 5B7A     		ldrb	r3, [r3, #9]	@ zero_extendqisi2
 1582 001c 13F0FF0F 		tst	r3, #255
 1583 0020 1DD0     		beq	.L114
 1584              	.L113:
 459:main.c        ****             PINA_Write(1);
 1585              		.loc 1 459 0 is_stmt 1
 1586 0022 9D4A     		ldr	r2, .L130+4
 1587 0024 9178     		ldrb	r1, [r2, #2]	@ zero_extendqisi2
 1588 0026 C9B2     		uxtb	r1, r1
 1589 0028 9C4B     		ldr	r3, .L130+8
 1590 002a 9878     		ldrb	r0, [r3, #2]	@ zero_extendqisi2
 1591 002c 5278     		ldrb	r2, [r2, #1]	@ zero_extendqisi2
 1592 002e D2B2     		uxtb	r2, r2
 1593 0030 5C78     		ldrb	r4, [r3, #1]	@ zero_extendqisi2
 1594 0032 00F03F00 		and	r0, r0, #63
 1595 0036 1B78     		ldrb	r3, [r3]	@ zero_extendqisi2
 1596 0038 B3FA83F3 		clz	r3, r3
 1597 003c 5B09     		lsrs	r3, r3, #5
 1598 003e 8842     		cmp	r0, r1
 1599 0040 08BF     		it	eq
 1600 0042 A242     		cmpeq	r2, r4
 1601 0044 0BD1     		bne	.L114
 1602 0046 53B1     		cbz	r3, .L114
 460:main.c        ****             sprintf(a,"w%d",1);
 1603              		.loc 1 460 0
ARM GAS  C:\Users\jefer\AppData\Local\Temp\ccK9eoPt.s 			page 41


 1604 0048 0120     		movs	r0, #1
 1605 004a FFF7FEFF 		bl	PINA_Write
 1606              	.LVL245:
 461:main.c        ****             UART_PutString(a);   
 1607              		.loc 1 461 0
 1608 004e 0122     		movs	r2, #1
 1609 0050 9349     		ldr	r1, .L130+12
 1610 0052 01A8     		add	r0, sp, #4
 1611 0054 FFF7FEFF 		bl	sprintf
 1612              	.LVL246:
 462:main.c        ****         }
 1613              		.loc 1 462 0
 1614 0058 01A8     		add	r0, sp, #4
 1615 005a FFF7FEFF 		bl	UART_PutString
 1616              	.LVL247:
 1617              	.L114:
 465:main.c        ****         if((wHoraFin[2]==((ds.hour)&(0b00111111)))&(wHoraFin[1]==ds.min)&(ds.sec==0x0)){
 1618              		.loc 1 465 0
 1619 005e 8D4B     		ldr	r3, .L130
 1620 0060 9B7A     		ldrb	r3, [r3, #10]	@ zero_extendqisi2
 1621 0062 13F0FF0F 		tst	r3, #255
 1622 0066 04D1     		bne	.L115
 465:main.c        ****         if((wHoraFin[2]==((ds.hour)&(0b00111111)))&(wHoraFin[1]==ds.min)&(ds.sec==0x0)){
 1623              		.loc 1 465 0 is_stmt 0 discriminator 1
 1624 0068 8A4B     		ldr	r3, .L130
 1625 006a DB7A     		ldrb	r3, [r3, #11]	@ zero_extendqisi2
 1626 006c 13F0FF0F 		tst	r3, #255
 1627 0070 1DD0     		beq	.L116
 1628              	.L115:
 466:main.c        ****             PINA_Write(0);
 1629              		.loc 1 466 0 is_stmt 1
 1630 0072 8C4A     		ldr	r2, .L130+16
 1631 0074 9178     		ldrb	r1, [r2, #2]	@ zero_extendqisi2
 1632 0076 C9B2     		uxtb	r1, r1
 1633 0078 884B     		ldr	r3, .L130+8
 1634 007a 9878     		ldrb	r0, [r3, #2]	@ zero_extendqisi2
 1635 007c 5278     		ldrb	r2, [r2, #1]	@ zero_extendqisi2
 1636 007e D2B2     		uxtb	r2, r2
 1637 0080 5C78     		ldrb	r4, [r3, #1]	@ zero_extendqisi2
 1638 0082 00F03F00 		and	r0, r0, #63
 1639 0086 1B78     		ldrb	r3, [r3]	@ zero_extendqisi2
 1640 0088 B3FA83F3 		clz	r3, r3
 1641 008c 5B09     		lsrs	r3, r3, #5
 1642 008e 8842     		cmp	r0, r1
 1643 0090 08BF     		it	eq
 1644 0092 A242     		cmpeq	r2, r4
 1645 0094 0BD1     		bne	.L116
 1646 0096 53B1     		cbz	r3, .L116
 467:main.c        ****             
 1647              		.loc 1 467 0
 1648 0098 0020     		movs	r0, #0
 1649 009a FFF7FEFF 		bl	PINA_Write
 1650              	.LVL248:
 469:main.c        ****             UART_PutString(a);   
 1651              		.loc 1 469 0
 1652 009e 0022     		movs	r2, #0
 1653 00a0 7F49     		ldr	r1, .L130+12
ARM GAS  C:\Users\jefer\AppData\Local\Temp\ccK9eoPt.s 			page 42


 1654 00a2 01A8     		add	r0, sp, #4
 1655 00a4 FFF7FEFF 		bl	sprintf
 1656              	.LVL249:
 470:main.c        ****         }
 1657              		.loc 1 470 0
 1658 00a8 01A8     		add	r0, sp, #4
 1659 00aa FFF7FEFF 		bl	UART_PutString
 1660              	.LVL250:
 1661              	.L116:
 473:main.c        ****         if((xHoraInicio[2]==((ds.hour)&(0b00111111)))&(xHoraInicio[1]==ds.min)&(ds.sec==0x0)){
 1662              		.loc 1 473 0
 1663 00ae 794B     		ldr	r3, .L130
 1664 00b0 1B7B     		ldrb	r3, [r3, #12]	@ zero_extendqisi2
 1665 00b2 13F0FF0F 		tst	r3, #255
 1666 00b6 04D1     		bne	.L117
 473:main.c        ****         if((xHoraInicio[2]==((ds.hour)&(0b00111111)))&(xHoraInicio[1]==ds.min)&(ds.sec==0x0)){
 1667              		.loc 1 473 0 is_stmt 0 discriminator 1
 1668 00b8 764B     		ldr	r3, .L130
 1669 00ba 5B7B     		ldrb	r3, [r3, #13]	@ zero_extendqisi2
 1670 00bc 13F0FF0F 		tst	r3, #255
 1671 00c0 1DD0     		beq	.L118
 1672              	.L117:
 474:main.c        ****             PINB_Write(1);
 1673              		.loc 1 474 0 is_stmt 1
 1674 00c2 794A     		ldr	r2, .L130+20
 1675 00c4 9178     		ldrb	r1, [r2, #2]	@ zero_extendqisi2
 1676 00c6 C9B2     		uxtb	r1, r1
 1677 00c8 744B     		ldr	r3, .L130+8
 1678 00ca 9878     		ldrb	r0, [r3, #2]	@ zero_extendqisi2
 1679 00cc 5278     		ldrb	r2, [r2, #1]	@ zero_extendqisi2
 1680 00ce D2B2     		uxtb	r2, r2
 1681 00d0 5C78     		ldrb	r4, [r3, #1]	@ zero_extendqisi2
 1682 00d2 00F03F00 		and	r0, r0, #63
 1683 00d6 1B78     		ldrb	r3, [r3]	@ zero_extendqisi2
 1684 00d8 B3FA83F3 		clz	r3, r3
 1685 00dc 5B09     		lsrs	r3, r3, #5
 1686 00de 8842     		cmp	r0, r1
 1687 00e0 08BF     		it	eq
 1688 00e2 A242     		cmpeq	r2, r4
 1689 00e4 0BD1     		bne	.L118
 1690 00e6 53B1     		cbz	r3, .L118
 475:main.c        ****             
 1691              		.loc 1 475 0
 1692 00e8 0120     		movs	r0, #1
 1693 00ea FFF7FEFF 		bl	PINB_Write
 1694              	.LVL251:
 477:main.c        ****             UART_PutString(a);   
 1695              		.loc 1 477 0
 1696 00ee 0122     		movs	r2, #1
 1697 00f0 6E49     		ldr	r1, .L130+24
 1698 00f2 01A8     		add	r0, sp, #4
 1699 00f4 FFF7FEFF 		bl	sprintf
 1700              	.LVL252:
 478:main.c        ****         }
 1701              		.loc 1 478 0
 1702 00f8 01A8     		add	r0, sp, #4
 1703 00fa FFF7FEFF 		bl	UART_PutString
ARM GAS  C:\Users\jefer\AppData\Local\Temp\ccK9eoPt.s 			page 43


 1704              	.LVL253:
 1705              	.L118:
 481:main.c        ****         if((xHoraFin[2]==((ds.hour)&(0b00111111)))&(xHoraFin[1]==ds.min)&(ds.sec==0x0)){
 1706              		.loc 1 481 0
 1707 00fe 654B     		ldr	r3, .L130
 1708 0100 9B7B     		ldrb	r3, [r3, #14]	@ zero_extendqisi2
 1709 0102 13F0FF0F 		tst	r3, #255
 1710 0106 04D1     		bne	.L119
 481:main.c        ****         if((xHoraFin[2]==((ds.hour)&(0b00111111)))&(xHoraFin[1]==ds.min)&(ds.sec==0x0)){
 1711              		.loc 1 481 0 is_stmt 0 discriminator 1
 1712 0108 624B     		ldr	r3, .L130
 1713 010a DB7B     		ldrb	r3, [r3, #15]	@ zero_extendqisi2
 1714 010c 13F0FF0F 		tst	r3, #255
 1715 0110 1DD0     		beq	.L120
 1716              	.L119:
 482:main.c        ****             PINB_Write(0);
 1717              		.loc 1 482 0 is_stmt 1
 1718 0112 674A     		ldr	r2, .L130+28
 1719 0114 9178     		ldrb	r1, [r2, #2]	@ zero_extendqisi2
 1720 0116 C9B2     		uxtb	r1, r1
 1721 0118 604B     		ldr	r3, .L130+8
 1722 011a 9878     		ldrb	r0, [r3, #2]	@ zero_extendqisi2
 1723 011c 5278     		ldrb	r2, [r2, #1]	@ zero_extendqisi2
 1724 011e D2B2     		uxtb	r2, r2
 1725 0120 5C78     		ldrb	r4, [r3, #1]	@ zero_extendqisi2
 1726 0122 00F03F00 		and	r0, r0, #63
 1727 0126 1B78     		ldrb	r3, [r3]	@ zero_extendqisi2
 1728 0128 B3FA83F3 		clz	r3, r3
 1729 012c 5B09     		lsrs	r3, r3, #5
 1730 012e 8842     		cmp	r0, r1
 1731 0130 08BF     		it	eq
 1732 0132 A242     		cmpeq	r2, r4
 1733 0134 0BD1     		bne	.L120
 1734 0136 53B1     		cbz	r3, .L120
 483:main.c        ****             
 1735              		.loc 1 483 0
 1736 0138 0020     		movs	r0, #0
 1737 013a FFF7FEFF 		bl	PINB_Write
 1738              	.LVL254:
 485:main.c        ****             UART_PutString(a);   
 1739              		.loc 1 485 0
 1740 013e 0022     		movs	r2, #0
 1741 0140 5A49     		ldr	r1, .L130+24
 1742 0142 01A8     		add	r0, sp, #4
 1743 0144 FFF7FEFF 		bl	sprintf
 1744              	.LVL255:
 486:main.c        ****         }
 1745              		.loc 1 486 0
 1746 0148 01A8     		add	r0, sp, #4
 1747 014a FFF7FEFF 		bl	UART_PutString
 1748              	.LVL256:
 1749              	.L120:
 489:main.c        ****         if((yHoraInicio[2]==((ds.hour)&(0b00111111)))&(yHoraInicio[1]==ds.min)&(ds.sec==0x0)){
 1750              		.loc 1 489 0
 1751 014e 514B     		ldr	r3, .L130
 1752 0150 1B7C     		ldrb	r3, [r3, #16]	@ zero_extendqisi2
 1753 0152 13F0FF0F 		tst	r3, #255
ARM GAS  C:\Users\jefer\AppData\Local\Temp\ccK9eoPt.s 			page 44


 1754 0156 04D1     		bne	.L121
 489:main.c        ****         if((yHoraInicio[2]==((ds.hour)&(0b00111111)))&(yHoraInicio[1]==ds.min)&(ds.sec==0x0)){
 1755              		.loc 1 489 0 is_stmt 0 discriminator 1
 1756 0158 4E4B     		ldr	r3, .L130
 1757 015a 5B7C     		ldrb	r3, [r3, #17]	@ zero_extendqisi2
 1758 015c 13F0FF0F 		tst	r3, #255
 1759 0160 1DD0     		beq	.L122
 1760              	.L121:
 490:main.c        ****             PINC_Write(1);
 1761              		.loc 1 490 0 is_stmt 1
 1762 0162 544A     		ldr	r2, .L130+32
 1763 0164 9178     		ldrb	r1, [r2, #2]	@ zero_extendqisi2
 1764 0166 C9B2     		uxtb	r1, r1
 1765 0168 4C4B     		ldr	r3, .L130+8
 1766 016a 9878     		ldrb	r0, [r3, #2]	@ zero_extendqisi2
 1767 016c 5278     		ldrb	r2, [r2, #1]	@ zero_extendqisi2
 1768 016e D2B2     		uxtb	r2, r2
 1769 0170 5C78     		ldrb	r4, [r3, #1]	@ zero_extendqisi2
 1770 0172 00F03F00 		and	r0, r0, #63
 1771 0176 1B78     		ldrb	r3, [r3]	@ zero_extendqisi2
 1772 0178 B3FA83F3 		clz	r3, r3
 1773 017c 5B09     		lsrs	r3, r3, #5
 1774 017e 8842     		cmp	r0, r1
 1775 0180 08BF     		it	eq
 1776 0182 A242     		cmpeq	r2, r4
 1777 0184 0BD1     		bne	.L122
 1778 0186 53B1     		cbz	r3, .L122
 491:main.c        ****             
 1779              		.loc 1 491 0
 1780 0188 0120     		movs	r0, #1
 1781 018a FFF7FEFF 		bl	PINC_Write
 1782              	.LVL257:
 493:main.c        ****             UART_PutString(a);   
 1783              		.loc 1 493 0
 1784 018e 0122     		movs	r2, #1
 1785 0190 4949     		ldr	r1, .L130+36
 1786 0192 01A8     		add	r0, sp, #4
 1787 0194 FFF7FEFF 		bl	sprintf
 1788              	.LVL258:
 494:main.c        ****         }
 1789              		.loc 1 494 0
 1790 0198 01A8     		add	r0, sp, #4
 1791 019a FFF7FEFF 		bl	UART_PutString
 1792              	.LVL259:
 1793              	.L122:
 497:main.c        ****         if((yHoraFin[2]==((ds.hour)&(0b00111111)))&(yHoraFin[1]==ds.min)&(ds.sec==0x0)){
 1794              		.loc 1 497 0
 1795 019e 3D4B     		ldr	r3, .L130
 1796 01a0 9B7C     		ldrb	r3, [r3, #18]	@ zero_extendqisi2
 1797 01a2 13F0FF0F 		tst	r3, #255
 1798 01a6 04D1     		bne	.L123
 497:main.c        ****         if((yHoraFin[2]==((ds.hour)&(0b00111111)))&(yHoraFin[1]==ds.min)&(ds.sec==0x0)){
 1799              		.loc 1 497 0 is_stmt 0 discriminator 1
 1800 01a8 3A4B     		ldr	r3, .L130
 1801 01aa DB7C     		ldrb	r3, [r3, #19]	@ zero_extendqisi2
 1802 01ac 13F0FF0F 		tst	r3, #255
 1803 01b0 1DD0     		beq	.L124
ARM GAS  C:\Users\jefer\AppData\Local\Temp\ccK9eoPt.s 			page 45


 1804              	.L123:
 498:main.c        ****         PINC_Write(0);
 1805              		.loc 1 498 0 is_stmt 1
 1806 01b2 424A     		ldr	r2, .L130+40
 1807 01b4 9178     		ldrb	r1, [r2, #2]	@ zero_extendqisi2
 1808 01b6 C9B2     		uxtb	r1, r1
 1809 01b8 384B     		ldr	r3, .L130+8
 1810 01ba 9878     		ldrb	r0, [r3, #2]	@ zero_extendqisi2
 1811 01bc 5278     		ldrb	r2, [r2, #1]	@ zero_extendqisi2
 1812 01be D2B2     		uxtb	r2, r2
 1813 01c0 5C78     		ldrb	r4, [r3, #1]	@ zero_extendqisi2
 1814 01c2 00F03F00 		and	r0, r0, #63
 1815 01c6 1B78     		ldrb	r3, [r3]	@ zero_extendqisi2
 1816 01c8 B3FA83F3 		clz	r3, r3
 1817 01cc 5B09     		lsrs	r3, r3, #5
 1818 01ce 8842     		cmp	r0, r1
 1819 01d0 08BF     		it	eq
 1820 01d2 A242     		cmpeq	r2, r4
 1821 01d4 0BD1     		bne	.L124
 1822 01d6 53B1     		cbz	r3, .L124
 499:main.c        ****         
 1823              		.loc 1 499 0
 1824 01d8 0020     		movs	r0, #0
 1825 01da FFF7FEFF 		bl	PINC_Write
 1826              	.LVL260:
 501:main.c        ****             UART_PutString(a);   
 1827              		.loc 1 501 0
 1828 01de 0022     		movs	r2, #0
 1829 01e0 3549     		ldr	r1, .L130+36
 1830 01e2 01A8     		add	r0, sp, #4
 1831 01e4 FFF7FEFF 		bl	sprintf
 1832              	.LVL261:
 502:main.c        ****         }
 1833              		.loc 1 502 0
 1834 01e8 01A8     		add	r0, sp, #4
 1835 01ea FFF7FEFF 		bl	UART_PutString
 1836              	.LVL262:
 1837              	.L124:
 505:main.c        ****         if((zHoraInicio[2]==((ds.hour)&(0b00111111)))&(zHoraInicio[1]==ds.min)&(ds.sec==0x0)){
 1838              		.loc 1 505 0
 1839 01ee 294B     		ldr	r3, .L130
 1840 01f0 1B7D     		ldrb	r3, [r3, #20]	@ zero_extendqisi2
 1841 01f2 13F0FF0F 		tst	r3, #255
 1842 01f6 04D1     		bne	.L125
 505:main.c        ****         if((zHoraInicio[2]==((ds.hour)&(0b00111111)))&(zHoraInicio[1]==ds.min)&(ds.sec==0x0)){
 1843              		.loc 1 505 0 is_stmt 0 discriminator 1
 1844 01f8 264B     		ldr	r3, .L130
 1845 01fa 5B7D     		ldrb	r3, [r3, #21]	@ zero_extendqisi2
 1846 01fc 13F0FF0F 		tst	r3, #255
 1847 0200 1DD0     		beq	.L126
 1848              	.L125:
 506:main.c        ****         PIND_Write(1);
 1849              		.loc 1 506 0 is_stmt 1
 1850 0202 2F4A     		ldr	r2, .L130+44
 1851 0204 9178     		ldrb	r1, [r2, #2]	@ zero_extendqisi2
 1852 0206 C9B2     		uxtb	r1, r1
 1853 0208 244B     		ldr	r3, .L130+8
ARM GAS  C:\Users\jefer\AppData\Local\Temp\ccK9eoPt.s 			page 46


 1854 020a 9878     		ldrb	r0, [r3, #2]	@ zero_extendqisi2
 1855 020c 5278     		ldrb	r2, [r2, #1]	@ zero_extendqisi2
 1856 020e D2B2     		uxtb	r2, r2
 1857 0210 5C78     		ldrb	r4, [r3, #1]	@ zero_extendqisi2
 1858 0212 00F03F00 		and	r0, r0, #63
 1859 0216 1B78     		ldrb	r3, [r3]	@ zero_extendqisi2
 1860 0218 B3FA83F3 		clz	r3, r3
 1861 021c 5B09     		lsrs	r3, r3, #5
 1862 021e 8842     		cmp	r0, r1
 1863 0220 08BF     		it	eq
 1864 0222 A242     		cmpeq	r2, r4
 1865 0224 0BD1     		bne	.L126
 1866 0226 53B1     		cbz	r3, .L126
 507:main.c        ****         
 1867              		.loc 1 507 0
 1868 0228 0120     		movs	r0, #1
 1869 022a FFF7FEFF 		bl	PIND_Write
 1870              	.LVL263:
 509:main.c        ****             UART_PutString(a);   
 1871              		.loc 1 509 0
 1872 022e 0122     		movs	r2, #1
 1873 0230 2449     		ldr	r1, .L130+48
 1874 0232 01A8     		add	r0, sp, #4
 1875 0234 FFF7FEFF 		bl	sprintf
 1876              	.LVL264:
 510:main.c        ****         }
 1877              		.loc 1 510 0
 1878 0238 01A8     		add	r0, sp, #4
 1879 023a FFF7FEFF 		bl	UART_PutString
 1880              	.LVL265:
 1881              	.L126:
 513:main.c        ****         if((zHoraFin[2]==((ds.hour)&(0b00111111)))&(zHoraFin[1]==ds.min)&(ds.sec==0x0)){
 1882              		.loc 1 513 0
 1883 023e 154B     		ldr	r3, .L130
 1884 0240 9B7D     		ldrb	r3, [r3, #22]	@ zero_extendqisi2
 1885 0242 13F0FF0F 		tst	r3, #255
 1886 0246 04D1     		bne	.L127
 513:main.c        ****         if((zHoraFin[2]==((ds.hour)&(0b00111111)))&(zHoraFin[1]==ds.min)&(ds.sec==0x0)){
 1887              		.loc 1 513 0 is_stmt 0 discriminator 1
 1888 0248 124B     		ldr	r3, .L130
 1889 024a DB7D     		ldrb	r3, [r3, #23]	@ zero_extendqisi2
 1890 024c 13F0FF0F 		tst	r3, #255
 1891 0250 1DD0     		beq	.L112
 1892              	.L127:
 514:main.c        ****         PIND_Write(0);
 1893              		.loc 1 514 0 is_stmt 1
 1894 0252 1D4A     		ldr	r2, .L130+52
 1895 0254 9178     		ldrb	r1, [r2, #2]	@ zero_extendqisi2
 1896 0256 C9B2     		uxtb	r1, r1
 1897 0258 104B     		ldr	r3, .L130+8
 1898 025a 9878     		ldrb	r0, [r3, #2]	@ zero_extendqisi2
 1899 025c 5278     		ldrb	r2, [r2, #1]	@ zero_extendqisi2
 1900 025e D2B2     		uxtb	r2, r2
 1901 0260 5C78     		ldrb	r4, [r3, #1]	@ zero_extendqisi2
 1902 0262 00F03F00 		and	r0, r0, #63
 1903 0266 1B78     		ldrb	r3, [r3]	@ zero_extendqisi2
 1904 0268 B3FA83F3 		clz	r3, r3
ARM GAS  C:\Users\jefer\AppData\Local\Temp\ccK9eoPt.s 			page 47


 1905 026c 5B09     		lsrs	r3, r3, #5
 1906 026e 8842     		cmp	r0, r1
 1907 0270 08BF     		it	eq
 1908 0272 A242     		cmpeq	r2, r4
 1909 0274 0BD1     		bne	.L112
 1910 0276 53B1     		cbz	r3, .L112
 515:main.c        ****         
 1911              		.loc 1 515 0
 1912 0278 0020     		movs	r0, #0
 1913 027a FFF7FEFF 		bl	PIND_Write
 1914              	.LVL266:
 517:main.c        ****             UART_PutString(a);   
 1915              		.loc 1 517 0
 1916 027e 0022     		movs	r2, #0
 1917 0280 1049     		ldr	r1, .L130+48
 1918 0282 01A8     		add	r0, sp, #4
 1919 0284 FFF7FEFF 		bl	sprintf
 1920              	.LVL267:
 518:main.c        ****         }
 1921              		.loc 1 518 0
 1922 0288 01A8     		add	r0, sp, #4
 1923 028a FFF7FEFF 		bl	UART_PutString
 1924              	.LVL268:
 1925              	.L112:
 522:main.c        **** 
 1926              		.loc 1 522 0
 1927 028e 02B0     		add	sp, sp, #8
 1928              		.cfi_def_cfa_offset 8
 1929              		@ sp needed
 1930 0290 10BD     		pop	{r4, pc}
 1931              	.L131:
 1932 0292 00BF     		.align	2
 1933              	.L130:
 1934 0294 00000000 		.word	.LANCHOR0
 1935 0298 00000000 		.word	wHoraInicio
 1936 029c 00000000 		.word	ds
 1937 02a0 58000000 		.word	.LC8
 1938 02a4 00000000 		.word	wHoraFin
 1939 02a8 00000000 		.word	xHoraInicio
 1940 02ac 5C000000 		.word	.LC9
 1941 02b0 00000000 		.word	xHoraFin
 1942 02b4 00000000 		.word	yHoraInicio
 1943 02b8 60000000 		.word	.LC10
 1944 02bc 00000000 		.word	yHoraFin
 1945 02c0 00000000 		.word	zHoraInicio
 1946 02c4 64000000 		.word	.LC11
 1947 02c8 00000000 		.word	zHoraFin
 1948              		.cfi_endproc
 1949              	.LFE71:
 1950              		.size	comparacion, .-comparacion
 1951              		.section	.text.InterrupISR1,"ax",%progbits
 1952              		.align	2
 1953              		.global	InterrupISR1
 1954              		.thumb
 1955              		.thumb_func
 1956              		.type	InterrupISR1, %function
 1957              	InterrupISR1:
ARM GAS  C:\Users\jefer\AppData\Local\Temp\ccK9eoPt.s 			page 48


 1958              	.LFB72:
 524:main.c        ****     char m[1];
 1959              		.loc 1 524 0
 1960              		.cfi_startproc
 1961              		@ args = 0, pretend = 0, frame = 8
 1962              		@ frame_needed = 0, uses_anonymous_args = 0
 1963 0000 10B5     		push	{r4, lr}
 1964              		.cfi_def_cfa_offset 8
 1965              		.cfi_offset 4, -8
 1966              		.cfi_offset 14, -4
 1967 0002 82B0     		sub	sp, sp, #8
 1968              		.cfi_def_cfa_offset 16
 526:main.c        ****         LCD_Position(0,0);
 1969              		.loc 1 526 0
 1970 0004 0E4C     		ldr	r4, .L134
 1971 0006 238C     		ldrh	r3, [r4, #32]
 1972 0008 9BB2     		uxth	r3, r3
 1973 000a 0133     		adds	r3, r3, #1
 1974 000c 9BB2     		uxth	r3, r3
 1975 000e 2384     		strh	r3, [r4, #32]	@ movhi
 527:main.c        ****         LCD_PrintString("Warning M #");
 1976              		.loc 1 527 0
 1977 0010 0021     		movs	r1, #0
 1978 0012 0846     		mov	r0, r1
 1979 0014 FFF7FEFF 		bl	LCD_Position
 1980              	.LVL269:
 528:main.c        ****         LCD_PrintNumber(temp2);
 1981              		.loc 1 528 0
 1982 0018 0A48     		ldr	r0, .L134+4
 1983 001a FFF7FEFF 		bl	LCD_PrintString
 1984              	.LVL270:
 529:main.c        ****         UART_PutString("m");
 1985              		.loc 1 529 0
 1986 001e 208C     		ldrh	r0, [r4, #32]
 1987 0020 80B2     		uxth	r0, r0
 1988 0022 FFF7FEFF 		bl	LCD_PrintU32Number
 1989              	.LVL271:
 530:main.c        ****         m[0]=(0xFF&temp2);
 1990              		.loc 1 530 0
 1991 0026 0848     		ldr	r0, .L134+8
 1992 0028 FFF7FEFF 		bl	UART_PutString
 1993              	.LVL272:
 531:main.c        ****         UART_PutString(m);
 1994              		.loc 1 531 0
 1995 002c 238C     		ldrh	r3, [r4, #32]
 1996 002e 02A8     		add	r0, sp, #8
 1997 0030 00F8043D 		strb	r3, [r0, #-4]!
 532:main.c        ****         PINMOV_ClearInterrupt();
 1998              		.loc 1 532 0
 1999 0034 FFF7FEFF 		bl	UART_PutString
 2000              	.LVL273:
 533:main.c        **** }
 2001              		.loc 1 533 0
 2002 0038 FFF7FEFF 		bl	PINMOV_ClearInterrupt
 2003              	.LVL274:
 534:main.c        **** 
 2004              		.loc 1 534 0
ARM GAS  C:\Users\jefer\AppData\Local\Temp\ccK9eoPt.s 			page 49


 2005 003c 02B0     		add	sp, sp, #8
 2006              		.cfi_def_cfa_offset 8
 2007              		@ sp needed
 2008 003e 10BD     		pop	{r4, pc}
 2009              	.L135:
 2010              		.align	2
 2011              	.L134:
 2012 0040 00000000 		.word	.LANCHOR0
 2013 0044 68000000 		.word	.LC12
 2014 0048 74000000 		.word	.LC13
 2015              		.cfi_endproc
 2016              	.LFE72:
 2017              		.size	InterrupISR1, .-InterrupISR1
 2018              		.section	.text.main,"ax",%progbits
 2019              		.align	2
 2020              		.global	main
 2021              		.thumb
 2022              		.thumb_func
 2023              		.type	main, %function
 2024              	main:
 2025              	.LFB74:
 614:main.c        **** }
 615:main.c        **** 
 616:main.c        **** 
 617:main.c        **** int main(void)
 618:main.c        **** {
 2026              		.loc 1 618 0
 2027              		.cfi_startproc
 2028              		@ Volatile: function does not return.
 2029              		@ args = 0, pretend = 0, frame = 0
 2030              		@ frame_needed = 0, uses_anonymous_args = 0
 2031 0000 08B5     		push	{r3, lr}
 2032              		.cfi_def_cfa_offset 8
 2033              		.cfi_offset 3, -8
 2034              		.cfi_offset 14, -4
 619:main.c        ****     CyGlobalIntEnable; /* Enable global interrupts. */
 2035              		.loc 1 619 0
 2036              		.syntax unified
 2037              	@ 619 "main.c" 1
 2038 0002 62B6     		CPSIE   i
 2039              	@ 0 "" 2
 620:main.c        ****     IRQRX_StartEx(InterrupRx);
 2040              		.loc 1 620 0
 2041              		.thumb
 2042              		.syntax unified
 2043 0004 1A48     		ldr	r0, .L139
 2044 0006 FFF7FEFF 		bl	IRQRX_StartEx
 2045              	.LVL275:
 621:main.c        ****     ISR_A_StartEx(InterrupA);
 2046              		.loc 1 621 0
 2047 000a 1A48     		ldr	r0, .L139+4
 2048 000c FFF7FEFF 		bl	ISR_A_StartEx
 2049              	.LVL276:
 622:main.c        ****     
 623:main.c        ****     UART_Start();
 2050              		.loc 1 623 0
 2051 0010 FFF7FEFF 		bl	UART_Start
ARM GAS  C:\Users\jefer\AppData\Local\Temp\ccK9eoPt.s 			page 50


 2052              	.LVL277:
 624:main.c        ****     LCD_Start();
 2053              		.loc 1 624 0
 2054 0014 FFF7FEFF 		bl	LCD_Start
 2055              	.LVL278:
 625:main.c        ****     I2C_Start();
 2056              		.loc 1 625 0
 2057 0018 FFF7FEFF 		bl	I2C_Start
 2058              	.LVL279:
 626:main.c        ****     PWM_Start();
 2059              		.loc 1 626 0
 2060 001c FFF7FEFF 		bl	PWM_Start
 2061              	.LVL280:
 627:main.c        ****     ADC_Start();
 2062              		.loc 1 627 0
 2063 0020 FFF7FEFF 		bl	ADC_Start
 2064              	.LVL281:
 628:main.c        **** //    ds.sec =  0x00; //  
 629:main.c        **** //    ds.min =  0x48;//
 630:main.c        **** //    ds.hour = 0b00001001;//Formato 24 horas bit 6 en 0 - 16 horas
 631:main.c        **** //    ds.date = 0x03; // dia 2
 632:main.c        **** //    ds.month = 0x03;//marzo
 633:main.c        **** //    ds.year = 0x19; // 2019
 634:main.c        **** //    ds.weekDay = 6; // Sunday: 6th day of week considering monday as first day.;
 635:main.c        **** //    DS_init();//Configura 
 636:main.c        **** //    DS_set_data(); 
 637:main.c        ****     PINA_Write(0);
 2065              		.loc 1 637 0
 2066 0024 0020     		movs	r0, #0
 2067 0026 FFF7FEFF 		bl	PINA_Write
 2068              	.LVL282:
 638:main.c        ****     PINB_Write(0);
 2069              		.loc 1 638 0
 2070 002a 0020     		movs	r0, #0
 2071 002c FFF7FEFF 		bl	PINB_Write
 2072              	.LVL283:
 639:main.c        ****     PINC_Write(0);
 2073              		.loc 1 639 0
 2074 0030 0020     		movs	r0, #0
 2075 0032 FFF7FEFF 		bl	PINC_Write
 2076              	.LVL284:
 640:main.c        ****     PIND_Write(0);
 2077              		.loc 1 640 0
 2078 0036 0020     		movs	r0, #0
 2079 0038 FFF7FEFF 		bl	PIND_Write
 2080              	.LVL285:
 641:main.c        ****     PWM_WriteCompare1(0);
 2081              		.loc 1 641 0
 2082 003c 0020     		movs	r0, #0
 2083 003e FFF7FEFF 		bl	PWM_WriteCompare1
 2084              	.LVL286:
 642:main.c        ****     PWM_WriteCompare2(0); 
 2085              		.loc 1 642 0
 2086 0042 0020     		movs	r0, #0
 2087 0044 FFF7FEFF 		bl	PWM_WriteCompare2
 2088              	.LVL287:
 643:main.c        ****     EEPROM_Start();
ARM GAS  C:\Users\jefer\AppData\Local\Temp\ccK9eoPt.s 			page 51


 2089              		.loc 1 643 0
 2090 0048 FFF7FEFF 		bl	EEPROM_Start
 2091              	.LVL288:
 644:main.c        ****     EEPROM_WriteByte(0,0);//Comentar en la presentacion
 2092              		.loc 1 644 0
 2093 004c 0021     		movs	r1, #0
 2094 004e 0846     		mov	r0, r1
 2095 0050 FFF7FEFF 		bl	EEPROM_WriteByte
 2096              	.LVL289:
 2097              	.L137:
 645:main.c        ****     
 646:main.c        ****     
 647:main.c        ****     for(;;)
 648:main.c        ****     {       
 649:main.c        ****         reloj();
 2098              		.loc 1 649 0 discriminator 1
 2099 0054 FFF7FEFF 		bl	reloj
 2100              	.LVL290:
 650:main.c        ****         DS_get_data();   
 2101              		.loc 1 650 0 discriminator 1
 2102 0058 FFF7FEFF 		bl	DS_get_data
 2103              	.LVL291:
 651:main.c        ****         comparacion();
 2104              		.loc 1 651 0 discriminator 1
 2105 005c FFF7FEFF 		bl	comparacion
 2106              	.LVL292:
 652:main.c        ****         muestreo();
 2107              		.loc 1 652 0 discriminator 1
 2108 0060 FFF7FEFF 		bl	muestreo
 2109              	.LVL293:
 653:main.c        ****         CyDelay(500);
 2110              		.loc 1 653 0 discriminator 1
 2111 0064 4FF4FA70 		mov	r0, #500
 2112 0068 FFF7FEFF 		bl	CyDelay
 2113              	.LVL294:
 2114 006c F2E7     		b	.L137
 2115              	.L140:
 2116 006e 00BF     		.align	2
 2117              	.L139:
 2118 0070 00000000 		.word	InterrupRx
 2119 0074 00000000 		.word	InterrupA
 2120              		.cfi_endproc
 2121              	.LFE74:
 2122              		.size	main, .-main
 2123              		.global	aux
 2124              		.comm	zHoraFin,3,4
 2125              		.comm	yHoraFin,3,4
 2126              		.comm	xHoraFin,3,4
 2127              		.comm	wHoraFin,3,4
 2128              		.comm	zHoraInicio,3,4
 2129              		.comm	yHoraInicio,3,4
 2130              		.comm	xHoraInicio,3,4
 2131              		.comm	wHoraInicio,3,4
 2132              		.comm	ds,8,4
 2133              		.global	item
 2134              		.global	temp2
 2135              		.global	item4
ARM GAS  C:\Users\jefer\AppData\Local\Temp\ccK9eoPt.s 			page 52


 2136              		.global	item3
 2137              		.global	item2
 2138              		.global	item1
 2139              		.global	cont
 2140              		.global	banderaH
 2141              		.global	banderaS
 2142              		.global	banderaF
 2143              		.global	banderaI
 2144              		.global	banderaM
 2145              		.global	bandera
 2146              		.global	dato
 2147              		.section	.rodata.str1.4,"aMS",%progbits,1
 2148              		.align	2
 2149              	.LC0:
 2150 0000 48616C6C 		.ascii	"Hall    %\000"
 2150      20202020 
 2150      2500
 2151 000a 0000     		.space	2
 2152              	.LC1:
 2153 000c 526F6F6D 		.ascii	"Room    %\000"
 2153      20202020 
 2153      2500
 2154 0016 0000     		.space	2
 2155              	.LC2:
 2156 0018 4F4E2020 		.ascii	"ON        \000"
 2156      20202020 
 2156      202000
 2157 0023 00       		.space	1
 2158              	.LC3:
 2159 0024 4F464620 		.ascii	"OFF       \000"
 2159      20202020 
 2159      202000
 2160 002f 00       		.space	1
 2161              	.LC4:
 2162 0030 53656C65 		.ascii	"Select:     \000"
 2162      63743A20 
 2162      20202020 
 2162      00
 2163 003d 000000   		.space	3
 2164              	.LC5:
 2165 0040 436F6E6E 		.ascii	"Connect\000"
 2165      65637400 
 2166              	.LC6:
 2167 0048 5761726E 		.ascii	"Warning T #\000"
 2167      696E6720 
 2167      54202300 
 2168              	.LC7:
 2169 0054 7400     		.ascii	"t\000"
 2170 0056 0000     		.space	2
 2171              	.LC8:
 2172 0058 77256400 		.ascii	"w%d\000"
 2173              	.LC9:
 2174 005c 78256400 		.ascii	"x%d\000"
 2175              	.LC10:
 2176 0060 79256400 		.ascii	"y%d\000"
 2177              	.LC11:
 2178 0064 7A256400 		.ascii	"z%d\000"
ARM GAS  C:\Users\jefer\AppData\Local\Temp\ccK9eoPt.s 			page 53


 2179              	.LC12:
 2180 0068 5761726E 		.ascii	"Warning M #\000"
 2180      696E6720 
 2180      4D202300 
 2181              	.LC13:
 2182 0074 6D00     		.ascii	"m\000"
 2183              		.bss
 2184              		.align	2
 2185              		.set	.LANCHOR0,. + 0
 2186              		.type	bandera, %object
 2187              		.size	bandera, 1
 2188              	bandera:
 2189 0000 00       		.space	1
 2190              		.type	banderaS, %object
 2191              		.size	banderaS, 1
 2192              	banderaS:
 2193 0001 00       		.space	1
 2194              		.type	banderaH, %object
 2195              		.size	banderaH, 1
 2196              	banderaH:
 2197 0002 00       		.space	1
 2198              		.type	banderaI, %object
 2199              		.size	banderaI, 1
 2200              	banderaI:
 2201 0003 00       		.space	1
 2202              		.type	banderaF, %object
 2203              		.size	banderaF, 1
 2204              	banderaF:
 2205 0004 00       		.space	1
 2206              		.type	banderaM, %object
 2207              		.size	banderaM, 1
 2208              	banderaM:
 2209 0005 00       		.space	1
 2210              		.type	cont, %object
 2211              		.size	cont, 1
 2212              	cont:
 2213 0006 00       		.space	1
 2214              		.type	item, %object
 2215              		.size	item, 1
 2216              	item:
 2217 0007 00       		.space	1
 2218              		.type	item1, %object
 2219              		.size	item1, 4
 2220              	item1:
 2221 0008 00000000 		.space	4
 2222              		.type	item2, %object
 2223              		.size	item2, 4
 2224              	item2:
 2225 000c 00000000 		.space	4
 2226              		.type	item3, %object
 2227              		.size	item3, 4
 2228              	item3:
 2229 0010 00000000 		.space	4
 2230              		.type	item4, %object
 2231              		.size	item4, 4
 2232              	item4:
 2233 0014 00000000 		.space	4
ARM GAS  C:\Users\jefer\AppData\Local\Temp\ccK9eoPt.s 			page 54


 2234              		.type	dato, %object
 2235              		.size	dato, 1
 2236              	dato:
 2237 0018 00       		.space	1
 2238 0019 000000   		.space	3
 2239              		.type	aux, %object
 2240              		.size	aux, 4
 2241              	aux:
 2242 001c 00000000 		.space	4
 2243              		.type	temp2, %object
 2244              		.size	temp2, 2
 2245              	temp2:
 2246 0020 0000     		.space	2
 2247              		.text
 2248              	.Letext0:
 2249              		.file 2 "c:\\program files (x86)\\cypress\\psoc creator\\4.2\\psoc creator\\import\\gnu\\arm\\5.4.
 2250              		.file 3 "c:\\program files (x86)\\cypress\\psoc creator\\4.2\\psoc creator\\import\\gnu\\arm\\5.4.
 2251              		.file 4 "Generated_Source\\PSoC5/cytypes.h"
 2252              		.file 5 "Generated_Source\\PSoC5/core_cm3.h"
 2253              		.file 6 "Generated_Source\\PSoC5/LCD.h"
 2254              		.file 7 "Generated_Source\\PSoC5/PWM.h"
 2255              		.file 8 "Generated_Source\\PSoC5/UART.h"
 2256              		.file 9 "Generated_Source\\PSoC5/PINA.h"
 2257              		.file 10 "Generated_Source\\PSoC5/PINB.h"
 2258              		.file 11 "Generated_Source\\PSoC5/PINC.h"
 2259              		.file 12 "Generated_Source\\PSoC5/PIND.h"
 2260              		.file 13 "Generated_Source\\PSoC5/Pin_A.h"
 2261              		.file 14 "Generated_Source\\PSoC5/I2C.h"
 2262              		.file 15 "Generated_Source\\PSoC5/ADC.h"
 2263              		.file 16 "Generated_Source\\PSoC5/EEPROM.h"
 2264              		.file 17 "c:\\program files (x86)\\cypress\\psoc creator\\4.2\\psoc creator\\import\\gnu\\arm\\5.4
 2265              		.file 18 "Generated_Source\\PSoC5/PINMOV.h"
 2266              		.file 19 "Generated_Source\\PSoC5/IRQRX.h"
 2267              		.file 20 "Generated_Source\\PSoC5/ISR_A.h"
 2268              		.file 21 "Generated_Source\\PSoC5/CyLib.h"