ARM GAS  C:\Users\jefer\AppData\Local\Temp\ccyfIxW8.s 			page 1


   1              		.syntax unified
   2              		.cpu cortex-m3
   3              		.fpu softvfp
   4              		.eabi_attribute 20, 1
   5              		.eabi_attribute 21, 1
   6              		.eabi_attribute 23, 3
   7              		.eabi_attribute 24, 1
   8              		.eabi_attribute 25, 1
   9              		.eabi_attribute 26, 1
  10              		.eabi_attribute 30, 1
  11              		.eabi_attribute 34, 1
  12              		.eabi_attribute 18, 4
  13              		.thumb
  14              		.syntax unified
  15              		.file	"Pin_A.c"
  16              		.text
  17              	.Ltext0:
  18              		.cfi_sections	.debug_frame
  19              		.section	.text.Pin_A_Write,"ax",%progbits
  20              		.align	2
  21              		.global	Pin_A_Write
  22              		.thumb
  23              		.thumb_func
  24              		.type	Pin_A_Write, %function
  25              	Pin_A_Write:
  26              	.LFB0:
  27              		.file 1 "Generated_Source\\PSoC5\\Pin_A.c"
   1:Generated_Source\PSoC5/Pin_A.c **** /*******************************************************************************
   2:Generated_Source\PSoC5/Pin_A.c **** * File Name: Pin_A.c  
   3:Generated_Source\PSoC5/Pin_A.c **** * Version 2.20
   4:Generated_Source\PSoC5/Pin_A.c **** *
   5:Generated_Source\PSoC5/Pin_A.c **** * Description:
   6:Generated_Source\PSoC5/Pin_A.c **** *  This file contains API to enable firmware control of a Pins component.
   7:Generated_Source\PSoC5/Pin_A.c **** *
   8:Generated_Source\PSoC5/Pin_A.c **** * Note:
   9:Generated_Source\PSoC5/Pin_A.c **** *
  10:Generated_Source\PSoC5/Pin_A.c **** ********************************************************************************
  11:Generated_Source\PSoC5/Pin_A.c **** * Copyright 2008-2015, Cypress Semiconductor Corporation.  All rights reserved.
  12:Generated_Source\PSoC5/Pin_A.c **** * You may use this file only in accordance with the license, terms, conditions, 
  13:Generated_Source\PSoC5/Pin_A.c **** * disclaimers, and limitations in the end user license agreement accompanying 
  14:Generated_Source\PSoC5/Pin_A.c **** * the software package with which this file was provided.
  15:Generated_Source\PSoC5/Pin_A.c **** *******************************************************************************/
  16:Generated_Source\PSoC5/Pin_A.c **** 
  17:Generated_Source\PSoC5/Pin_A.c **** #include "cytypes.h"
  18:Generated_Source\PSoC5/Pin_A.c **** #include "Pin_A.h"
  19:Generated_Source\PSoC5/Pin_A.c **** 
  20:Generated_Source\PSoC5/Pin_A.c **** /* APIs are not generated for P15[7:6] on PSoC 5 */
  21:Generated_Source\PSoC5/Pin_A.c **** #if !(CY_PSOC5A &&\
  22:Generated_Source\PSoC5/Pin_A.c **** 	 Pin_A__PORT == 15 && ((Pin_A__MASK & 0xC0) != 0))
  23:Generated_Source\PSoC5/Pin_A.c **** 
  24:Generated_Source\PSoC5/Pin_A.c **** 
  25:Generated_Source\PSoC5/Pin_A.c **** /*******************************************************************************
  26:Generated_Source\PSoC5/Pin_A.c **** * Function Name: Pin_A_Write
  27:Generated_Source\PSoC5/Pin_A.c **** ****************************************************************************//**
  28:Generated_Source\PSoC5/Pin_A.c **** *
  29:Generated_Source\PSoC5/Pin_A.c **** * \brief Writes the value to the physical port (data output register), masking
  30:Generated_Source\PSoC5/Pin_A.c **** *  and shifting the bits appropriately. 
ARM GAS  C:\Users\jefer\AppData\Local\Temp\ccyfIxW8.s 			page 2


  31:Generated_Source\PSoC5/Pin_A.c **** *
  32:Generated_Source\PSoC5/Pin_A.c **** * The data output register controls the signal applied to the physical pin in 
  33:Generated_Source\PSoC5/Pin_A.c **** * conjunction with the drive mode parameter. This function avoids changing 
  34:Generated_Source\PSoC5/Pin_A.c **** * other bits in the port by using the appropriate method (read-modify-write or
  35:Generated_Source\PSoC5/Pin_A.c **** * bit banding).
  36:Generated_Source\PSoC5/Pin_A.c **** *
  37:Generated_Source\PSoC5/Pin_A.c **** * <b>Note</b> This function should not be used on a hardware digital output pin 
  38:Generated_Source\PSoC5/Pin_A.c **** * as it is driven by the hardware signal attached to it.
  39:Generated_Source\PSoC5/Pin_A.c **** *
  40:Generated_Source\PSoC5/Pin_A.c **** * \param value
  41:Generated_Source\PSoC5/Pin_A.c **** *  Value to write to the component instance.
  42:Generated_Source\PSoC5/Pin_A.c **** *
  43:Generated_Source\PSoC5/Pin_A.c **** * \return 
  44:Generated_Source\PSoC5/Pin_A.c **** *  None 
  45:Generated_Source\PSoC5/Pin_A.c **** *
  46:Generated_Source\PSoC5/Pin_A.c **** * \sideeffect
  47:Generated_Source\PSoC5/Pin_A.c **** *  If you use read-modify-write operations that are not atomic; the Interrupt 
  48:Generated_Source\PSoC5/Pin_A.c **** *  Service Routines (ISR) can cause corruption of this function. An ISR that 
  49:Generated_Source\PSoC5/Pin_A.c **** *  interrupts this function and performs writes to the Pins component data 
  50:Generated_Source\PSoC5/Pin_A.c **** *  register can cause corrupted port data. To avoid this issue, you should 
  51:Generated_Source\PSoC5/Pin_A.c **** *  either use the Per-Pin APIs (primary method) or disable interrupts around 
  52:Generated_Source\PSoC5/Pin_A.c **** *  this function.
  53:Generated_Source\PSoC5/Pin_A.c **** *
  54:Generated_Source\PSoC5/Pin_A.c **** * \funcusage
  55:Generated_Source\PSoC5/Pin_A.c **** *  \snippet Pin_A_SUT.c usage_Pin_A_Write
  56:Generated_Source\PSoC5/Pin_A.c **** *******************************************************************************/
  57:Generated_Source\PSoC5/Pin_A.c **** void Pin_A_Write(uint8 value)
  58:Generated_Source\PSoC5/Pin_A.c **** {
  28              		.loc 1 58 0
  29              		.cfi_startproc
  30              		@ args = 0, pretend = 0, frame = 0
  31              		@ frame_needed = 0, uses_anonymous_args = 0
  32              		@ link register save eliminated.
  33              	.LVL0:
  59:Generated_Source\PSoC5/Pin_A.c ****     uint8 staticBits = (Pin_A_DR & (uint8)(~Pin_A_MASK));
  34              		.loc 1 59 0
  35 0000 044A     		ldr	r2, .L2
  36 0002 1378     		ldrb	r3, [r2]	@ zero_extendqisi2
  37 0004 03F00303 		and	r3, r3, #3
  38              	.LVL1:
  60:Generated_Source\PSoC5/Pin_A.c ****     Pin_A_DR = staticBits | ((uint8)(value << Pin_A_SHIFT) & Pin_A_MASK);
  39              		.loc 1 60 0
  40 0008 8000     		lsls	r0, r0, #2
  41              	.LVL2:
  42 000a C0B2     		uxtb	r0, r0
  43 000c 1843     		orrs	r0, r0, r3
  44 000e 1070     		strb	r0, [r2]
  45 0010 7047     		bx	lr
  46              	.L3:
  47 0012 00BF     		.align	2
  48              	.L2:
  49 0014 00510040 		.word	1073762560
  50              		.cfi_endproc
  51              	.LFE0:
  52              		.size	Pin_A_Write, .-Pin_A_Write
  53              		.section	.text.Pin_A_SetDriveMode,"ax",%progbits
  54              		.align	2
ARM GAS  C:\Users\jefer\AppData\Local\Temp\ccyfIxW8.s 			page 3


  55              		.global	Pin_A_SetDriveMode
  56              		.thumb
  57              		.thumb_func
  58              		.type	Pin_A_SetDriveMode, %function
  59              	Pin_A_SetDriveMode:
  60              	.LFB1:
  61:Generated_Source\PSoC5/Pin_A.c **** }
  62:Generated_Source\PSoC5/Pin_A.c **** 
  63:Generated_Source\PSoC5/Pin_A.c **** 
  64:Generated_Source\PSoC5/Pin_A.c **** /*******************************************************************************
  65:Generated_Source\PSoC5/Pin_A.c **** * Function Name: Pin_A_SetDriveMode
  66:Generated_Source\PSoC5/Pin_A.c **** ****************************************************************************//**
  67:Generated_Source\PSoC5/Pin_A.c **** *
  68:Generated_Source\PSoC5/Pin_A.c **** * \brief Sets the drive mode for each of the Pins component's pins.
  69:Generated_Source\PSoC5/Pin_A.c **** * 
  70:Generated_Source\PSoC5/Pin_A.c **** * <b>Note</b> This affects all pins in the Pins component instance. Use the
  71:Generated_Source\PSoC5/Pin_A.c **** * Per-Pin APIs if you wish to control individual pin's drive modes.
  72:Generated_Source\PSoC5/Pin_A.c **** *
  73:Generated_Source\PSoC5/Pin_A.c **** * \param mode
  74:Generated_Source\PSoC5/Pin_A.c **** *  Mode for the selected signals. Valid options are documented in 
  75:Generated_Source\PSoC5/Pin_A.c **** *  \ref driveMode.
  76:Generated_Source\PSoC5/Pin_A.c **** *
  77:Generated_Source\PSoC5/Pin_A.c **** * \return
  78:Generated_Source\PSoC5/Pin_A.c **** *  None
  79:Generated_Source\PSoC5/Pin_A.c **** *
  80:Generated_Source\PSoC5/Pin_A.c **** * \sideeffect
  81:Generated_Source\PSoC5/Pin_A.c **** *  If you use read-modify-write operations that are not atomic, the ISR can
  82:Generated_Source\PSoC5/Pin_A.c **** *  cause corruption of this function. An ISR that interrupts this function 
  83:Generated_Source\PSoC5/Pin_A.c **** *  and performs writes to the Pins component Drive Mode registers can cause 
  84:Generated_Source\PSoC5/Pin_A.c **** *  corrupted port data. To avoid this issue, you should either use the Per-Pin
  85:Generated_Source\PSoC5/Pin_A.c **** *  APIs (primary method) or disable interrupts around this function.
  86:Generated_Source\PSoC5/Pin_A.c **** *
  87:Generated_Source\PSoC5/Pin_A.c **** * \funcusage
  88:Generated_Source\PSoC5/Pin_A.c **** *  \snippet Pin_A_SUT.c usage_Pin_A_SetDriveMode
  89:Generated_Source\PSoC5/Pin_A.c **** *******************************************************************************/
  90:Generated_Source\PSoC5/Pin_A.c **** void Pin_A_SetDriveMode(uint8 mode)
  91:Generated_Source\PSoC5/Pin_A.c **** {
  61              		.loc 1 91 0
  62              		.cfi_startproc
  63              		@ args = 0, pretend = 0, frame = 0
  64              		@ frame_needed = 0, uses_anonymous_args = 0
  65              		@ link register save eliminated.
  66              	.LVL3:
  92:Generated_Source\PSoC5/Pin_A.c **** 	CyPins_SetPinDriveMode(Pin_A_0, mode);
  67              		.loc 1 92 0
  68 0000 134A     		ldr	r2, .L5
  69 0002 1378     		ldrb	r3, [r2]	@ zero_extendqisi2
  70 0004 00F00E00 		and	r0, r0, #14
  71              	.LVL4:
  72 0008 03F0F103 		and	r3, r3, #241
  73 000c 0343     		orrs	r3, r3, r0
  74 000e 1370     		strb	r3, [r2]
  93:Generated_Source\PSoC5/Pin_A.c **** 	CyPins_SetPinDriveMode(Pin_A_1, mode);
  75              		.loc 1 93 0
  76 0010 0132     		adds	r2, r2, #1
  77 0012 1378     		ldrb	r3, [r2]	@ zero_extendqisi2
  78 0014 03F0F103 		and	r3, r3, #241
ARM GAS  C:\Users\jefer\AppData\Local\Temp\ccyfIxW8.s 			page 4


  79 0018 0343     		orrs	r3, r3, r0
  80 001a 1370     		strb	r3, [r2]
  94:Generated_Source\PSoC5/Pin_A.c **** 	CyPins_SetPinDriveMode(Pin_A_2, mode);
  81              		.loc 1 94 0
  82 001c 0132     		adds	r2, r2, #1
  83 001e 1378     		ldrb	r3, [r2]	@ zero_extendqisi2
  84 0020 03F0F103 		and	r3, r3, #241
  85 0024 0343     		orrs	r3, r3, r0
  86 0026 1370     		strb	r3, [r2]
  95:Generated_Source\PSoC5/Pin_A.c **** 	CyPins_SetPinDriveMode(Pin_A_3, mode);
  87              		.loc 1 95 0
  88 0028 0132     		adds	r2, r2, #1
  89 002a 1378     		ldrb	r3, [r2]	@ zero_extendqisi2
  90 002c 03F0F103 		and	r3, r3, #241
  91 0030 0343     		orrs	r3, r3, r0
  92 0032 1370     		strb	r3, [r2]
  96:Generated_Source\PSoC5/Pin_A.c **** 	CyPins_SetPinDriveMode(Pin_A_4, mode);
  93              		.loc 1 96 0
  94 0034 0132     		adds	r2, r2, #1
  95 0036 1378     		ldrb	r3, [r2]	@ zero_extendqisi2
  96 0038 03F0F103 		and	r3, r3, #241
  97 003c 0343     		orrs	r3, r3, r0
  98 003e 1370     		strb	r3, [r2]
  97:Generated_Source\PSoC5/Pin_A.c **** 	CyPins_SetPinDriveMode(Pin_A_5, mode);
  99              		.loc 1 97 0
 100 0040 0132     		adds	r2, r2, #1
 101 0042 1378     		ldrb	r3, [r2]	@ zero_extendqisi2
 102 0044 03F0F103 		and	r3, r3, #241
 103 0048 1843     		orrs	r0, r0, r3
 104 004a 1070     		strb	r0, [r2]
 105 004c 7047     		bx	lr
 106              	.L6:
 107 004e 00BF     		.align	2
 108              	.L5:
 109 0050 02500040 		.word	1073762306
 110              		.cfi_endproc
 111              	.LFE1:
 112              		.size	Pin_A_SetDriveMode, .-Pin_A_SetDriveMode
 113              		.section	.text.Pin_A_Read,"ax",%progbits
 114              		.align	2
 115              		.global	Pin_A_Read
 116              		.thumb
 117              		.thumb_func
 118              		.type	Pin_A_Read, %function
 119              	Pin_A_Read:
 120              	.LFB2:
  98:Generated_Source\PSoC5/Pin_A.c **** }
  99:Generated_Source\PSoC5/Pin_A.c **** 
 100:Generated_Source\PSoC5/Pin_A.c **** 
 101:Generated_Source\PSoC5/Pin_A.c **** /*******************************************************************************
 102:Generated_Source\PSoC5/Pin_A.c **** * Function Name: Pin_A_Read
 103:Generated_Source\PSoC5/Pin_A.c **** ****************************************************************************//**
 104:Generated_Source\PSoC5/Pin_A.c **** *
 105:Generated_Source\PSoC5/Pin_A.c **** * \brief Reads the associated physical port (pin status register) and masks 
 106:Generated_Source\PSoC5/Pin_A.c **** *  the required bits according to the width and bit position of the component
 107:Generated_Source\PSoC5/Pin_A.c **** *  instance. 
 108:Generated_Source\PSoC5/Pin_A.c **** *
ARM GAS  C:\Users\jefer\AppData\Local\Temp\ccyfIxW8.s 			page 5


 109:Generated_Source\PSoC5/Pin_A.c **** * The pin's status register returns the current logic level present on the 
 110:Generated_Source\PSoC5/Pin_A.c **** * physical pin.
 111:Generated_Source\PSoC5/Pin_A.c **** *
 112:Generated_Source\PSoC5/Pin_A.c **** * \return 
 113:Generated_Source\PSoC5/Pin_A.c **** *  The current value for the pins in the component as a right justified number.
 114:Generated_Source\PSoC5/Pin_A.c **** *
 115:Generated_Source\PSoC5/Pin_A.c **** * \funcusage
 116:Generated_Source\PSoC5/Pin_A.c **** *  \snippet Pin_A_SUT.c usage_Pin_A_Read  
 117:Generated_Source\PSoC5/Pin_A.c **** *******************************************************************************/
 118:Generated_Source\PSoC5/Pin_A.c **** uint8 Pin_A_Read(void)
 119:Generated_Source\PSoC5/Pin_A.c **** {
 121              		.loc 1 119 0
 122              		.cfi_startproc
 123              		@ args = 0, pretend = 0, frame = 0
 124              		@ frame_needed = 0, uses_anonymous_args = 0
 125              		@ link register save eliminated.
 120:Generated_Source\PSoC5/Pin_A.c ****     return (Pin_A_PS & Pin_A_MASK) >> Pin_A_SHIFT;
 126              		.loc 1 120 0
 127 0000 014B     		ldr	r3, .L8
 128 0002 1878     		ldrb	r0, [r3]	@ zero_extendqisi2
 121:Generated_Source\PSoC5/Pin_A.c **** }
 129              		.loc 1 121 0
 130 0004 8008     		lsrs	r0, r0, #2
 131 0006 7047     		bx	lr
 132              	.L9:
 133              		.align	2
 134              	.L8:
 135 0008 01510040 		.word	1073762561
 136              		.cfi_endproc
 137              	.LFE2:
 138              		.size	Pin_A_Read, .-Pin_A_Read
 139              		.section	.text.Pin_A_ReadDataReg,"ax",%progbits
 140              		.align	2
 141              		.global	Pin_A_ReadDataReg
 142              		.thumb
 143              		.thumb_func
 144              		.type	Pin_A_ReadDataReg, %function
 145              	Pin_A_ReadDataReg:
 146              	.LFB3:
 122:Generated_Source\PSoC5/Pin_A.c **** 
 123:Generated_Source\PSoC5/Pin_A.c **** 
 124:Generated_Source\PSoC5/Pin_A.c **** /*******************************************************************************
 125:Generated_Source\PSoC5/Pin_A.c **** * Function Name: Pin_A_ReadDataReg
 126:Generated_Source\PSoC5/Pin_A.c **** ****************************************************************************//**
 127:Generated_Source\PSoC5/Pin_A.c **** *
 128:Generated_Source\PSoC5/Pin_A.c **** * \brief Reads the associated physical port's data output register and masks 
 129:Generated_Source\PSoC5/Pin_A.c **** *  the correct bits according to the width and bit position of the component 
 130:Generated_Source\PSoC5/Pin_A.c **** *  instance. 
 131:Generated_Source\PSoC5/Pin_A.c **** *
 132:Generated_Source\PSoC5/Pin_A.c **** * The data output register controls the signal applied to the physical pin in 
 133:Generated_Source\PSoC5/Pin_A.c **** * conjunction with the drive mode parameter. This is not the same as the 
 134:Generated_Source\PSoC5/Pin_A.c **** * preferred Pin_A_Read() API because the 
 135:Generated_Source\PSoC5/Pin_A.c **** * Pin_A_ReadDataReg() reads the data register instead of the status 
 136:Generated_Source\PSoC5/Pin_A.c **** * register. For output pins this is a useful function to determine the value 
 137:Generated_Source\PSoC5/Pin_A.c **** * just written to the pin.
 138:Generated_Source\PSoC5/Pin_A.c **** *
 139:Generated_Source\PSoC5/Pin_A.c **** * \return 
ARM GAS  C:\Users\jefer\AppData\Local\Temp\ccyfIxW8.s 			page 6


 140:Generated_Source\PSoC5/Pin_A.c **** *  The current value of the data register masked and shifted into a right 
 141:Generated_Source\PSoC5/Pin_A.c **** *  justified number for the component instance.
 142:Generated_Source\PSoC5/Pin_A.c **** *
 143:Generated_Source\PSoC5/Pin_A.c **** * \funcusage
 144:Generated_Source\PSoC5/Pin_A.c **** *  \snippet Pin_A_SUT.c usage_Pin_A_ReadDataReg 
 145:Generated_Source\PSoC5/Pin_A.c **** *******************************************************************************/
 146:Generated_Source\PSoC5/Pin_A.c **** uint8 Pin_A_ReadDataReg(void)
 147:Generated_Source\PSoC5/Pin_A.c **** {
 147              		.loc 1 147 0
 148              		.cfi_startproc
 149              		@ args = 0, pretend = 0, frame = 0
 150              		@ frame_needed = 0, uses_anonymous_args = 0
 151              		@ link register save eliminated.
 148:Generated_Source\PSoC5/Pin_A.c ****     return (Pin_A_DR & Pin_A_MASK) >> Pin_A_SHIFT;
 152              		.loc 1 148 0
 153 0000 014B     		ldr	r3, .L11
 154 0002 1878     		ldrb	r0, [r3]	@ zero_extendqisi2
 149:Generated_Source\PSoC5/Pin_A.c **** }
 155              		.loc 1 149 0
 156 0004 8008     		lsrs	r0, r0, #2
 157 0006 7047     		bx	lr
 158              	.L12:
 159              		.align	2
 160              	.L11:
 161 0008 00510040 		.word	1073762560
 162              		.cfi_endproc
 163              	.LFE3:
 164              		.size	Pin_A_ReadDataReg, .-Pin_A_ReadDataReg
 165              		.section	.text.Pin_A_SetInterruptMode,"ax",%progbits
 166              		.align	2
 167              		.global	Pin_A_SetInterruptMode
 168              		.thumb
 169              		.thumb_func
 170              		.type	Pin_A_SetInterruptMode, %function
 171              	Pin_A_SetInterruptMode:
 172              	.LFB4:
 150:Generated_Source\PSoC5/Pin_A.c **** 
 151:Generated_Source\PSoC5/Pin_A.c **** 
 152:Generated_Source\PSoC5/Pin_A.c **** /* If interrupt is connected for this Pins component */ 
 153:Generated_Source\PSoC5/Pin_A.c **** #if defined(Pin_A_INTSTAT) 
 154:Generated_Source\PSoC5/Pin_A.c **** 
 155:Generated_Source\PSoC5/Pin_A.c ****     /*******************************************************************************
 156:Generated_Source\PSoC5/Pin_A.c ****     * Function Name: Pin_A_SetInterruptMode
 157:Generated_Source\PSoC5/Pin_A.c ****     ****************************************************************************//**
 158:Generated_Source\PSoC5/Pin_A.c ****     *
 159:Generated_Source\PSoC5/Pin_A.c ****     * \brief Configures the interrupt mode for each of the Pins component's
 160:Generated_Source\PSoC5/Pin_A.c ****     *  pins. Alternatively you may set the interrupt mode for all the pins
 161:Generated_Source\PSoC5/Pin_A.c ****     *  specified in the Pins component.
 162:Generated_Source\PSoC5/Pin_A.c ****     *
 163:Generated_Source\PSoC5/Pin_A.c ****     *  <b>Note</b> The interrupt is port-wide and therefore any enabled pin
 164:Generated_Source\PSoC5/Pin_A.c ****     *  interrupt may trigger it.
 165:Generated_Source\PSoC5/Pin_A.c ****     *
 166:Generated_Source\PSoC5/Pin_A.c ****     * \param position
 167:Generated_Source\PSoC5/Pin_A.c ****     *  The pin position as listed in the Pins component. You may OR these to be 
 168:Generated_Source\PSoC5/Pin_A.c ****     *  able to configure the interrupt mode of multiple pins within a Pins 
 169:Generated_Source\PSoC5/Pin_A.c ****     *  component. Or you may use Pin_A_INTR_ALL to configure the
 170:Generated_Source\PSoC5/Pin_A.c ****     *  interrupt mode of all the pins in the Pins component.       
ARM GAS  C:\Users\jefer\AppData\Local\Temp\ccyfIxW8.s 			page 7


 171:Generated_Source\PSoC5/Pin_A.c ****     *  - Pin_A_0_INTR       (First pin in the list)
 172:Generated_Source\PSoC5/Pin_A.c ****     *  - Pin_A_1_INTR       (Second pin in the list)
 173:Generated_Source\PSoC5/Pin_A.c ****     *  - ...
 174:Generated_Source\PSoC5/Pin_A.c ****     *  - Pin_A_INTR_ALL     (All pins in Pins component)
 175:Generated_Source\PSoC5/Pin_A.c ****     *
 176:Generated_Source\PSoC5/Pin_A.c ****     * \param mode
 177:Generated_Source\PSoC5/Pin_A.c ****     *  Interrupt mode for the selected pins. Valid options are documented in
 178:Generated_Source\PSoC5/Pin_A.c ****     *  \ref intrMode.
 179:Generated_Source\PSoC5/Pin_A.c ****     *
 180:Generated_Source\PSoC5/Pin_A.c ****     * \return 
 181:Generated_Source\PSoC5/Pin_A.c ****     *  None
 182:Generated_Source\PSoC5/Pin_A.c ****     *  
 183:Generated_Source\PSoC5/Pin_A.c ****     * \sideeffect
 184:Generated_Source\PSoC5/Pin_A.c ****     *  It is recommended that the interrupt be disabled before calling this 
 185:Generated_Source\PSoC5/Pin_A.c ****     *  function to avoid unintended interrupt requests. Note that the interrupt
 186:Generated_Source\PSoC5/Pin_A.c ****     *  type is port wide, and therefore will trigger for any enabled pin on the 
 187:Generated_Source\PSoC5/Pin_A.c ****     *  port.
 188:Generated_Source\PSoC5/Pin_A.c ****     *
 189:Generated_Source\PSoC5/Pin_A.c ****     * \funcusage
 190:Generated_Source\PSoC5/Pin_A.c ****     *  \snippet Pin_A_SUT.c usage_Pin_A_SetInterruptMode
 191:Generated_Source\PSoC5/Pin_A.c ****     *******************************************************************************/
 192:Generated_Source\PSoC5/Pin_A.c ****     void Pin_A_SetInterruptMode(uint16 position, uint16 mode)
 193:Generated_Source\PSoC5/Pin_A.c ****     {
 173              		.loc 1 193 0
 174              		.cfi_startproc
 175              		@ args = 0, pretend = 0, frame = 0
 176              		@ frame_needed = 0, uses_anonymous_args = 0
 177              		@ link register save eliminated.
 178              	.LVL5:
 194:Generated_Source\PSoC5/Pin_A.c **** 		if((position & Pin_A_0_INTR) != 0u) 
 179              		.loc 1 194 0
 180 0000 00F00403 		and	r3, r0, #4
 181 0004 9BB2     		uxth	r3, r3
 182 0006 13B1     		cbz	r3, .L14
 195:Generated_Source\PSoC5/Pin_A.c **** 		{ 
 196:Generated_Source\PSoC5/Pin_A.c **** 			 Pin_A_0_INTTYPE_REG = (uint8)mode; 
 183              		.loc 1 196 0
 184 0008 CBB2     		uxtb	r3, r1
 185 000a 134A     		ldr	r2, .L20
 186 000c 1370     		strb	r3, [r2]
 187              	.L14:
 197:Generated_Source\PSoC5/Pin_A.c **** 		} 
 198:Generated_Source\PSoC5/Pin_A.c **** 		if((position & Pin_A_1_INTR) != 0u) 
 188              		.loc 1 198 0
 189 000e 00F00803 		and	r3, r0, #8
 190 0012 9BB2     		uxth	r3, r3
 191 0014 13B1     		cbz	r3, .L15
 199:Generated_Source\PSoC5/Pin_A.c **** 		{ 
 200:Generated_Source\PSoC5/Pin_A.c **** 			 Pin_A_1_INTTYPE_REG = (uint8)mode; 
 192              		.loc 1 200 0
 193 0016 CBB2     		uxtb	r3, r1
 194 0018 104A     		ldr	r2, .L20+4
 195 001a 1370     		strb	r3, [r2]
 196              	.L15:
 201:Generated_Source\PSoC5/Pin_A.c **** 		} 
 202:Generated_Source\PSoC5/Pin_A.c **** 		if((position & Pin_A_2_INTR) != 0u) 
 197              		.loc 1 202 0
ARM GAS  C:\Users\jefer\AppData\Local\Temp\ccyfIxW8.s 			page 8


 198 001c 00F01003 		and	r3, r0, #16
 199 0020 9BB2     		uxth	r3, r3
 200 0022 13B1     		cbz	r3, .L16
 203:Generated_Source\PSoC5/Pin_A.c **** 		{ 
 204:Generated_Source\PSoC5/Pin_A.c **** 			 Pin_A_2_INTTYPE_REG = (uint8)mode; 
 201              		.loc 1 204 0
 202 0024 CBB2     		uxtb	r3, r1
 203 0026 0E4A     		ldr	r2, .L20+8
 204 0028 1370     		strb	r3, [r2]
 205              	.L16:
 205:Generated_Source\PSoC5/Pin_A.c **** 		} 
 206:Generated_Source\PSoC5/Pin_A.c **** 		if((position & Pin_A_3_INTR) != 0u) 
 206              		.loc 1 206 0
 207 002a 00F02003 		and	r3, r0, #32
 208 002e 9BB2     		uxth	r3, r3
 209 0030 13B1     		cbz	r3, .L17
 207:Generated_Source\PSoC5/Pin_A.c **** 		{ 
 208:Generated_Source\PSoC5/Pin_A.c **** 			 Pin_A_3_INTTYPE_REG = (uint8)mode; 
 210              		.loc 1 208 0
 211 0032 CBB2     		uxtb	r3, r1
 212 0034 0B4A     		ldr	r2, .L20+12
 213 0036 1370     		strb	r3, [r2]
 214              	.L17:
 209:Generated_Source\PSoC5/Pin_A.c **** 		} 
 210:Generated_Source\PSoC5/Pin_A.c **** 		if((position & Pin_A_4_INTR) != 0u) 
 215              		.loc 1 210 0
 216 0038 00F04003 		and	r3, r0, #64
 217 003c 9BB2     		uxth	r3, r3
 218 003e 13B1     		cbz	r3, .L18
 211:Generated_Source\PSoC5/Pin_A.c **** 		{ 
 212:Generated_Source\PSoC5/Pin_A.c **** 			 Pin_A_4_INTTYPE_REG = (uint8)mode; 
 219              		.loc 1 212 0
 220 0040 CBB2     		uxtb	r3, r1
 221 0042 094A     		ldr	r2, .L20+16
 222 0044 1370     		strb	r3, [r2]
 223              	.L18:
 213:Generated_Source\PSoC5/Pin_A.c **** 		} 
 214:Generated_Source\PSoC5/Pin_A.c **** 		if((position & Pin_A_5_INTR) != 0u) 
 224              		.loc 1 214 0
 225 0046 00F08000 		and	r0, r0, #128
 226              	.LVL6:
 227 004a 80B2     		uxth	r0, r0
 228 004c 10B1     		cbz	r0, .L13
 215:Generated_Source\PSoC5/Pin_A.c **** 		{ 
 216:Generated_Source\PSoC5/Pin_A.c **** 			 Pin_A_5_INTTYPE_REG = (uint8)mode; 
 229              		.loc 1 216 0
 230 004e C9B2     		uxtb	r1, r1
 231              	.LVL7:
 232 0050 064B     		ldr	r3, .L20+20
 233 0052 1970     		strb	r1, [r3]
 234              	.L13:
 235 0054 7047     		bx	lr
 236              	.L21:
 237 0056 00BF     		.align	2
 238              	.L20:
 239 0058 02450040 		.word	1073759490
 240 005c 03450040 		.word	1073759491
ARM GAS  C:\Users\jefer\AppData\Local\Temp\ccyfIxW8.s 			page 9


 241 0060 04450040 		.word	1073759492
 242 0064 05450040 		.word	1073759493
 243 0068 06450040 		.word	1073759494
 244 006c 07450040 		.word	1073759495
 245              		.cfi_endproc
 246              	.LFE4:
 247              		.size	Pin_A_SetInterruptMode, .-Pin_A_SetInterruptMode
 248              		.section	.text.Pin_A_ClearInterrupt,"ax",%progbits
 249              		.align	2
 250              		.global	Pin_A_ClearInterrupt
 251              		.thumb
 252              		.thumb_func
 253              		.type	Pin_A_ClearInterrupt, %function
 254              	Pin_A_ClearInterrupt:
 255              	.LFB5:
 217:Generated_Source\PSoC5/Pin_A.c **** 		}
 218:Generated_Source\PSoC5/Pin_A.c ****     }
 219:Generated_Source\PSoC5/Pin_A.c ****     
 220:Generated_Source\PSoC5/Pin_A.c ****     
 221:Generated_Source\PSoC5/Pin_A.c ****     /*******************************************************************************
 222:Generated_Source\PSoC5/Pin_A.c ****     * Function Name: Pin_A_ClearInterrupt
 223:Generated_Source\PSoC5/Pin_A.c ****     ****************************************************************************//**
 224:Generated_Source\PSoC5/Pin_A.c ****     *
 225:Generated_Source\PSoC5/Pin_A.c ****     * \brief Clears any active interrupts attached with the component and returns 
 226:Generated_Source\PSoC5/Pin_A.c ****     *  the value of the interrupt status register allowing determination of which
 227:Generated_Source\PSoC5/Pin_A.c ****     *  pins generated an interrupt event.
 228:Generated_Source\PSoC5/Pin_A.c ****     *
 229:Generated_Source\PSoC5/Pin_A.c ****     * \return 
 230:Generated_Source\PSoC5/Pin_A.c ****     *  The right-shifted current value of the interrupt status register. Each pin 
 231:Generated_Source\PSoC5/Pin_A.c ****     *  has one bit set if it generated an interrupt event. For example, bit 0 is 
 232:Generated_Source\PSoC5/Pin_A.c ****     *  for pin 0 and bit 1 is for pin 1 of the Pins component.
 233:Generated_Source\PSoC5/Pin_A.c ****     *  
 234:Generated_Source\PSoC5/Pin_A.c ****     * \sideeffect
 235:Generated_Source\PSoC5/Pin_A.c ****     *  Clears all bits of the physical port's interrupt status register, not just
 236:Generated_Source\PSoC5/Pin_A.c ****     *  those associated with the Pins component.
 237:Generated_Source\PSoC5/Pin_A.c ****     *
 238:Generated_Source\PSoC5/Pin_A.c ****     * \funcusage
 239:Generated_Source\PSoC5/Pin_A.c ****     *  \snippet Pin_A_SUT.c usage_Pin_A_ClearInterrupt
 240:Generated_Source\PSoC5/Pin_A.c ****     *******************************************************************************/
 241:Generated_Source\PSoC5/Pin_A.c ****     uint8 Pin_A_ClearInterrupt(void)
 242:Generated_Source\PSoC5/Pin_A.c ****     {
 256              		.loc 1 242 0
 257              		.cfi_startproc
 258              		@ args = 0, pretend = 0, frame = 0
 259              		@ frame_needed = 0, uses_anonymous_args = 0
 260              		@ link register save eliminated.
 243:Generated_Source\PSoC5/Pin_A.c ****         return (Pin_A_INTSTAT & Pin_A_MASK) >> Pin_A_SHIFT;
 261              		.loc 1 243 0
 262 0000 014B     		ldr	r3, .L23
 263 0002 1878     		ldrb	r0, [r3]	@ zero_extendqisi2
 244:Generated_Source\PSoC5/Pin_A.c ****     }
 264              		.loc 1 244 0
 265 0004 8008     		lsrs	r0, r0, #2
 266 0006 7047     		bx	lr
 267              	.L24:
 268              		.align	2
 269              	.L23:
ARM GAS  C:\Users\jefer\AppData\Local\Temp\ccyfIxW8.s 			page 10


 270 0008 80450040 		.word	1073759616
 271              		.cfi_endproc
 272              	.LFE5:
 273              		.size	Pin_A_ClearInterrupt, .-Pin_A_ClearInterrupt
 274              		.text
 275              	.Letext0:
 276              		.file 2 "Generated_Source\\PSoC5\\cytypes.h"